(lp0
(dp1
S'UID'
p2
S'farm000@gmail.com'
p3
sS'humidity'
p4
S'40.4'
p5
sS'MAC'
p6
S'c4e98415cb66'
p7
sS'date'
p8
S'2015-07-20-00-00-48'
p9
sS'soilMoisture'
p10
S'0'
p11
sS'temperature'
p12
S'25.8'
p13
sa(dp14
g2
g3
sg4
S'40.3'
p15
sg6
g7
sg8
S'2015-07-20-00-01-49'
p16
sg10
g11
sg12
S'25.8'
p17
sa(dp18
g2
g3
sg4
S'40.3'
p19
sg6
g7
sg8
S'2015-07-20-00-02-49'
p20
sg10
g11
sg12
S'25.8'
p21
sa(dp22
g2
g3
sg4
S'40.2'
p23
sg6
g7
sg8
S'2015-07-20-00-03-50'
p24
sg10
g11
sg12
S'25.8'
p25
sa(dp26
g2
g3
sg4
S'40.2'
p27
sg6
g7
sg8
S'2015-07-20-00-04-50'
p28
sg10
g11
sg12
S'25.8'
p29
sa(dp30
g2
g3
sg4
S'40.1'
p31
sg6
g7
sg8
S'2015-07-20-00-05-54'
p32
sg10
g11
sg12
S'25.7'
p33
sa(dp34
g2
g3
sg4
S'40.1'
p35
sg6
g7
sg8
S'2015-07-20-00-06-54'
p36
sg10
g11
sg12
S'25.7'
p37
sa(dp38
g2
g3
sg4
S'40.0'
p39
sg6
g7
sg8
S'2015-07-20-00-07-55'
p40
sg10
g11
sg12
S'25.7'
p41
sa(dp42
g2
g3
sg4
S'40.0'
p43
sg6
g7
sg8
S'2015-07-20-00-08-55'
p44
sg10
g11
sg12
S'25.7'
p45
sa(dp46
g2
g3
sg4
S'39.9'
p47
sg6
g7
sg8
S'2015-07-20-00-09-58'
p48
sg10
g11
sg12
S'25.7'
p49
sa(dp50
g2
g3
sg4
S'39.8'
p51
sg6
g7
sg8
S'2015-07-20-00-11-02'
p52
sg10
g11
sg12
S'25.7'
p53
sa(dp54
g2
g3
sg4
S'39.8'
p55
sg6
g7
sg8
S'2015-07-20-00-12-05'
p56
sg10
g11
sg12
S'25.7'
p57
sa(dp58
g2
g3
sg4
S'39.8'
p59
sg6
g7
sg8
S'2015-07-20-00-13-05'
p60
sg10
g11
sg12
S'25.7'
p61
sa(dp62
g2
g3
sg4
S'39.7'
p63
sg6
g7
sg8
S'2015-07-20-00-14-06'
p64
sg10
g11
sg12
S'25.7'
p65
sa(dp66
g2
g3
sg4
S'39.7'
p67
sg6
g7
sg8
S'2015-07-20-00-15-06'
p68
sg10
g11
sg12
S'25.7'
p69
sa(dp70
g2
g3
sg4
S'39.6'
p71
sg6
g7
sg8
S'2015-07-20-00-16-07'
p72
sg10
g11
sg12
S'25.7'
p73
sa(dp74
g2
g3
sg4
S'39.6'
p75
sg6
g7
sg8
S'2015-07-20-00-17-07'
p76
sg10
g11
sg12
S'25.7'
p77
sa(dp78
g2
g3
sg4
S'39.5'
p79
sg6
g7
sg8
S'2015-07-20-00-18-08'
p80
sg10
g11
sg12
S'25.7'
p81
sa(dp82
g2
g3
sg4
S'39.4'
p83
sg6
g7
sg8
S'2015-07-20-00-19-11'
p84
sg10
g11
sg12
S'25.6'
p85
sa(dp86
g2
g3
sg4
S'39.5'
p87
sg6
g7
sg8
S'2015-07-20-00-20-12'
p88
sg10
g11
sg12
S'25.6'
p89
sa(dp90
g2
g3
sg4
S'39.5'
p91
sg6
g7
sg8
S'2015-07-20-00-21-12'
p92
sg10
g11
sg12
S'25.7'
p93
sa(dp94
g2
g3
sg4
S'39.4'
p95
sg6
g7
sg8
S'2015-07-20-00-22-13'
p96
sg10
g11
sg12
S'25.6'
p97
sa(dp98
g2
g3
sg4
S'39.3'
p99
sg6
g7
sg8
S'2015-07-20-00-23-16'
p100
sg10
g11
sg12
S'25.6'
p101
sa(dp102
g2
g3
sg4
S'39.5'
p103
sg6
g7
sg8
S'2015-07-20-00-24-17'
p104
sg10
g11
sg12
S'25.6'
p105
sa(dp106
g2
g3
sg4
S'39.3'
p107
sg6
g7
sg8
S'2015-07-20-00-25-17'
p108
sg10
g11
sg12
S'25.6'
p109
sa(dp110
g2
g3
sg4
S'39.2'
p111
sg6
g7
sg8
S'2015-07-20-00-26-18'
p112
sg10
g11
sg12
S'25.6'
p113
sa(dp114
g2
g3
sg4
S'39.2'
p115
sg6
g7
sg8
S'2015-07-20-00-27-18'
p116
sg10
g11
sg12
S'25.6'
p117
sa(dp118
g2
g3
sg4
S'39.1'
p119
sg6
g7
sg8
S'2015-07-20-00-28-19'
p120
sg10
g11
sg12
S'25.6'
p121
sa(dp122
g2
g3
sg4
S'39.1'
p123
sg6
g7
sg8
S'2015-07-20-00-29-19'
p124
sg10
g11
sg12
S'25.6'
p125
sa(dp126
g2
g3
sg4
S'39.0'
p127
sg6
g7
sg8
S'2015-07-20-00-30-25'
p128
sg10
g11
sg12
S'25.5'
p129
sa(dp130
g2
g3
sg4
S'39.0'
p131
sg6
g7
sg8
S'2015-07-20-00-31-26'
p132
sg10
g11
sg12
S'25.6'
p133
sa(dp134
g2
g3
sg4
S'39.0'
p135
sg6
g7
sg8
S'2015-07-20-00-32-26'
p136
sg10
g11
sg12
S'25.5'
p137
sa(dp138
g2
g3
sg4
S'38.9'
p139
sg6
g7
sg8
S'2015-07-20-00-33-27'
p140
sg10
g11
sg12
S'25.5'
p141
sa(dp142
g2
g3
sg4
S'38.9'
p143
sg6
g7
sg8
S'2015-07-20-00-34-27'
p144
sg10
g11
sg12
S'25.5'
p145
sa(dp146
g2
g3
sg4
S'38.8'
p147
sg6
g7
sg8
S'2015-07-20-00-35-30'
p148
sg10
g11
sg12
S'25.5'
p149
sa(dp150
g2
g3
sg4
S'38.7'
p151
sg6
g7
sg8
S'2015-07-20-00-36-33'
p152
sg10
g11
sg12
S'25.5'
p153
sa(dp154
g2
g3
sg4
S'38.7'
p155
sg6
g7
sg8
S'2015-07-20-00-37-34'
p156
sg10
g11
sg12
S'25.5'
p157
sa(dp158
g2
g3
sg4
S'38.7'
p159
sg6
g7
sg8
S'2015-07-20-00-38-35'
p160
sg10
g11
sg12
S'25.5'
p161
sa(dp162
g2
g3
sg4
S'38.6'
p163
sg6
g7
sg8
S'2015-07-20-00-39-35'
p164
sg10
g11
sg12
S'25.4'
p165
sa(dp166
g2
g3
sg4
S'38.7'
p167
sg6
g7
sg8
S'2015-07-20-00-40-36'
p168
sg10
g11
sg12
S'25.5'
p169
sa(dp170
g2
g3
sg4
S'38.7'
p171
sg6
g7
sg8
S'2015-07-20-00-41-36'
p172
sg10
g11
sg12
S'25.5'
p173
sa(dp174
g2
g3
sg4
S'38.6'
p175
sg6
g7
sg8
S'2015-07-20-00-42-37'
p176
sg10
g11
sg12
S'25.4'
p177
sa(dp178
g2
g3
sg4
S'38.6'
p179
sg6
g7
sg8
S'2015-07-20-00-43-37'
p180
sg10
g11
sg12
S'25.4'
p181
sa(dp182
g2
g3
sg4
S'38.5'
p183
sg6
g7
sg8
S'2015-07-20-00-44-38'
p184
sg10
g11
sg12
S'25.5'
p185
sa(dp186
g2
g3
sg4
S'38.5'
p187
sg6
g7
sg8
S'2015-07-20-00-45-39'
p188
sg10
g11
sg12
S'25.4'
p189
sa(dp190
g2
g3
sg4
S'38.4'
p191
sg6
g7
sg8
S'2015-07-20-00-46-39'
p192
sg10
g11
sg12
S'25.4'
p193
sa(dp194
g2
g3
sg4
S'38.4'
p195
sg6
g7
sg8
S'2015-07-20-00-47-40'
p196
sg10
g11
sg12
S'25.4'
p197
sa(dp198
g2
g3
sg4
S'38.4'
p199
sg6
g7
sg8
S'2015-07-20-00-48-40'
p200
sg10
g11
sg12
S'25.4'
p201
sa(dp202
g2
g3
sg4
S'38.4'
p203
sg6
g7
sg8
S'2015-07-20-00-49-41'
p204
sg10
g11
sg12
S'25.4'
p205
sa(dp206
g2
g3
sg4
S'38.3'
p207
sg6
g7
sg8
S'2015-07-20-00-50-41'
p208
sg10
g11
sg12
S'25.4'
p209
sa(dp210
g2
g3
sg4
S'38.3'
p211
sg6
g7
sg8
S'2015-07-20-00-51-42'
p212
sg10
g11
sg12
S'25.4'
p213
sa(dp214
g2
g3
sg4
S'38.3'
p215
sg6
g7
sg8
S'2015-07-20-00-52-43'
p216
sg10
g11
sg12
S'25.4'
p217
sa(dp218
g2
g3
sg4
S'38.3'
p219
sg6
g7
sg8
S'2015-07-20-00-53-43'
p220
sg10
g11
sg12
S'25.3'
p221
sa(dp222
g2
g3
sg4
S'38.3'
p223
sg6
g7
sg8
S'2015-07-20-00-54-44'
p224
sg10
g11
sg12
S'25.4'
p225
sa(dp226
g2
g3
sg4
S'38.2'
p227
sg6
g7
sg8
S'2015-07-20-00-55-44'
p228
sg10
g11
sg12
S'25.4'
p229
sa(dp230
g2
g3
sg4
S'38.2'
p231
sg6
g7
sg8
S'2015-07-20-00-56-45'
p232
sg10
g11
sg12
S'25.4'
p233
sa(dp234
g2
g3
sg4
S'38.1'
p235
sg6
g7
sg8
S'2015-07-20-00-57-48'
p236
sg10
g11
sg12
S'25.3'
p237
sa(dp238
g2
g3
sg4
S'38.2'
p239
sg6
g7
sg8
S'2015-07-20-00-58-49'
p240
sg10
g11
sg12
S'25.3'
p241
sa(dp242
g2
g3
sg4
S'38.1'
p243
sg6
g7
sg8
S'2015-07-20-00-59-49'
p244
sg10
g11
sg12
S'25.3'
p245
sa(dp246
g2
g3
sg4
S'38.1'
p247
sg6
g7
sg8
S'2015-07-20-01-00-50'
p248
sg10
g11
sg12
S'25.3'
p249
sa(dp250
g2
g3
sg4
S'38.1'
p251
sg6
g7
sg8
S'2015-07-20-01-01-50'
p252
sg10
g11
sg12
S'25.3'
p253
sa(dp254
g2
g3
sg4
S'38.1'
p255
sg6
g7
sg8
S'2015-07-20-01-02-51'
p256
sg10
g11
sg12
S'25.4'
p257
sa(dp258
g2
g3
sg4
S'38.0'
p259
sg6
g7
sg8
S'2015-07-20-01-03-54'
p260
sg10
g11
sg12
S'25.3'
p261
sa(dp262
g2
g3
sg4
S'38.0'
p263
sg6
g7
sg8
S'2015-07-20-01-05-00'
p264
sg10
g11
sg12
S'25.3'
p265
sa(dp266
g2
g3
sg4
S'38.0'
p267
sg6
g7
sg8
S'2015-07-20-01-06-00'
p268
sg10
g11
sg12
S'25.3'
p269
sa(dp270
g2
g3
sg4
S'38.0'
p271
sg6
g7
sg8
S'2015-07-20-01-07-01'
p272
sg10
g11
sg12
S'25.3'
p273
sa(dp274
g2
g3
sg4
S'37.9'
p275
sg6
g7
sg8
S'2015-07-20-01-08-06'
p276
sg10
g11
sg12
S'25.3'
p277
sa(dp278
g2
g3
sg4
S'37.9'
p279
sg6
g7
sg8
S'2015-07-20-01-09-07'
p280
sg10
g11
sg12
S'25.3'
p281
sa(dp282
g2
g3
sg4
S'37.9'
p283
sg6
g7
sg8
S'2015-07-20-01-10-07'
p284
sg10
g11
sg12
S'25.3'
p285
sa(dp286
g2
g3
sg4
S'37.8'
p287
sg6
g7
sg8
S'2015-07-20-01-11-11'
p288
sg10
g11
sg12
S'25.3'
p289
sa(dp290
g2
g3
sg4
S'37.8'
p291
sg6
g7
sg8
S'2015-07-20-01-12-11'
p292
sg10
g11
sg12
S'25.3'
p293
sa(dp294
g2
g3
sg4
S'37.8'
p295
sg6
g7
sg8
S'2015-07-20-01-13-12'
p296
sg10
g11
sg12
S'25.3'
p297
sa(dp298
g2
g3
sg4
S'37.8'
p299
sg6
g7
sg8
S'2015-07-20-01-14-12'
p300
sg10
g11
sg12
S'25.3'
p301
sa(dp302
g2
g3
sg4
S'37.8'
p303
sg6
g7
sg8
S'2015-07-20-01-15-13'
p304
sg10
g11
sg12
S'25.3'
p305
sa(dp306
g2
g3
sg4
S'37.7'
p307
sg6
g7
sg8
S'2015-07-20-01-16-13'
p308
sg10
g11
sg12
S'25.3'
p309
sa(dp310
g2
g3
sg4
S'37.7'
p311
sg6
g7
sg8
S'2015-07-20-01-17-14'
p312
sg10
g11
sg12
S'25.3'
p313
sa(dp314
g2
g3
sg4
S'37.7'
p315
sg6
g7
sg8
S'2015-07-20-01-18-15'
p316
sg10
g11
sg12
S'25.2'
p317
sa(dp318
g2
g3
sg4
S'37.6'
p319
sg6
g7
sg8
S'2015-07-20-01-19-15'
p320
sg10
g11
sg12
S'25.2'
p321
sa(dp322
g2
g3
sg4
S'37.6'
p323
sg6
g7
sg8
S'2015-07-20-01-20-16'
p324
sg10
g11
sg12
S'25.3'
p325
sa(dp326
g2
g3
sg4
S'37.5'
p327
sg6
g7
sg8
S'2015-07-20-01-21-16'
p328
sg10
g11
sg12
S'25.2'
p329
sa(dp330
g2
g3
sg4
S'37.6'
p331
sg6
g7
sg8
S'2015-07-20-01-22-19'
p332
sg10
g11
sg12
S'25.2'
p333
sa(dp334
g2
g3
sg4
S'37.5'
p335
sg6
g7
sg8
S'2015-07-20-01-23-20'
p336
sg10
g11
sg12
S'25.2'
p337
sa(dp338
g2
g3
sg4
S'37.5'
p339
sg6
g7
sg8
S'2015-07-20-01-24-20'
p340
sg10
g11
sg12
S'25.3'
p341
sa(dp342
g2
g3
sg4
S'37.5'
p343
sg6
g7
sg8
S'2015-07-20-01-25-21'
p344
sg10
g11
sg12
S'25.2'
p345
sa(dp346
g2
g3
sg4
S'37.4'
p347
sg6
g7
sg8
S'2015-07-20-01-26-22'
p348
sg10
g11
sg12
S'25.2'
p349
sa(dp350
g2
g3
sg4
S'37.5'
p351
sg6
g7
sg8
S'2015-07-20-01-27-22'
p352
sg10
g11
sg12
S'25.2'
p353
sa(dp354
g2
g3
sg4
S'37.4'
p355
sg6
g7
sg8
S'2015-07-20-01-28-23'
p356
sg10
g11
sg12
S'25.2'
p357
sa(dp358
g2
g3
sg4
S'37.4'
p359
sg6
g7
sg8
S'2015-07-20-01-29-23'
p360
sg10
g11
sg12
S'25.2'
p361
sa(dp362
g2
g3
sg4
S'37.4'
p363
sg6
g7
sg8
S'2015-07-20-01-30-24'
p364
sg10
g11
sg12
S'25.2'
p365
sa(dp366
g2
g3
sg4
S'37.3'
p367
sg6
g7
sg8
S'2015-07-20-01-31-27'
p368
sg10
g11
sg12
S'25.2'
p369
sa(dp370
g2
g3
sg4
S'37.3'
p371
sg6
g7
sg8
S'2015-07-20-01-32-28'
p372
sg10
g11
sg12
S'25.2'
p373
sa(dp374
g2
g3
sg4
S'37.3'
p375
sg6
g7
sg8
S'2015-07-20-01-33-28'
p376
sg10
g11
sg12
S'25.2'
p377
sa(dp378
g2
g3
sg4
S'37.3'
p379
sg6
g7
sg8
S'2015-07-20-01-34-29'
p380
sg10
g11
sg12
S'25.2'
p381
sa(dp382
g2
g3
sg4
S'37.2'
p383
sg6
g7
sg8
S'2015-07-20-01-35-32'
p384
sg10
g11
sg12
S'25.2'
p385
sa(dp386
g2
g3
sg4
S'37.3'
p387
sg6
g7
sg8
S'2015-07-20-01-36-32'
p388
sg10
g11
sg12
S'25.2'
p389
sa(dp390
g2
g3
sg4
S'37.3'
p391
sg6
g7
sg8
S'2015-07-20-01-37-33'
p392
sg10
g11
sg12
S'25.2'
p393
sa(dp394
g2
g3
sg4
S'37.3'
p395
sg6
g7
sg8
S'2015-07-20-01-38-33'
p396
sg10
g11
sg12
S'25.2'
p397
sa(dp398
g2
g3
sg4
S'37.2'
p399
sg6
g7
sg8
S'2015-07-20-01-39-34'
p400
sg10
g11
sg12
S'25.2'
p401
sa(dp402
g2
g3
sg4
S'37.2'
p403
sg6
g7
sg8
S'2015-07-20-01-40-35'
p404
sg10
g11
sg12
S'25.2'
p405
sa(dp406
g2
g3
sg4
S'37.1'
p407
sg6
g7
sg8
S'2015-07-20-01-41-35'
p408
sg10
g11
sg12
S'25.2'
p409
sa(dp410
g2
g3
sg4
S'37.1'
p411
sg6
g7
sg8
S'2015-07-20-01-42-36'
p412
sg10
g11
sg12
S'25.2'
p413
sa(dp414
g2
g3
sg4
S'37.1'
p415
sg6
g7
sg8
S'2015-07-20-01-43-36'
p416
sg10
g11
sg12
S'25.2'
p417
sa(dp418
g2
g3
sg4
S'37.1'
p419
sg6
g7
sg8
S'2015-07-20-01-44-37'
p420
sg10
g11
sg12
S'25.2'
p421
sa(dp422
g2
g3
sg4
S'37.1'
p423
sg6
g7
sg8
S'2015-07-20-01-45-37'
p424
sg10
g11
sg12
S'25.2'
p425
sa(dp426
g2
g3
sg4
S'37.1'
p427
sg6
g7
sg8
S'2015-07-20-01-46-41'
p428
sg10
g11
sg12
S'25.2'
p429
sa(dp430
g2
g3
sg4
S'37.1'
p431
sg6
g7
sg8
S'2015-07-20-01-47-41'
p432
sg10
g11
sg12
S'25.2'
p433
sa(dp434
g2
g3
sg4
S'37.0'
p435
sg6
g7
sg8
S'2015-07-20-01-48-42'
p436
sg10
g11
sg12
S'25.2'
p437
sa(dp438
g2
g3
sg4
S'37.0'
p439
sg6
g7
sg8
S'2015-07-20-01-49-42'
p440
sg10
g11
sg12
S'25.1'
p441
sa(dp442
g2
g3
sg4
S'37.0'
p443
sg6
g7
sg8
S'2015-07-20-01-50-43'
p444
sg10
g11
sg12
S'25.2'
p445
sa(dp446
g2
g3
sg4
S'37.0'
p447
sg6
g7
sg8
S'2015-07-20-01-51-43'
p448
sg10
g11
sg12
S'25.1'
p449
sa(dp450
g2
g3
sg4
S'37.0'
p451
sg6
g7
sg8
S'2015-07-20-01-52-44'
p452
sg10
g11
sg12
S'25.2'
p453
sa(dp454
g2
g3
sg4
S'37.0'
p455
sg6
g7
sg8
S'2015-07-20-01-53-45'
p456
sg10
g11
sg12
S'25.1'
p457
sa(dp458
g2
g3
sg4
S'37.0'
p459
sg6
g7
sg8
S'2015-07-20-01-54-45'
p460
sg10
g11
sg12
S'25.1'
p461
sa(dp462
g2
g3
sg4
S'37.0'
p463
sg6
g7
sg8
S'2015-07-20-01-55-46'
p464
sg10
g11
sg12
S'25.1'
p465
sa(dp466
g2
g3
sg4
S'36.9'
p467
sg6
g7
sg8
S'2015-07-20-01-56-49'
p468
sg10
g11
sg12
S'25.1'
p469
sa(dp470
g2
g3
sg4
S'36.9'
p471
sg6
g7
sg8
S'2015-07-20-01-57-49'
p472
sg10
g11
sg12
S'25.1'
p473
sa(dp474
g2
g3
sg4
S'36.9'
p475
sg6
g7
sg8
S'2015-07-20-01-58-50'
p476
sg10
g11
sg12
S'25.1'
p477
sa(dp478
g2
g3
sg4
S'36.9'
p479
sg6
g7
sg8
S'2015-07-20-01-59-50'
p480
sg10
g11
sg12
S'25.1'
p481
sa(dp482
g2
g3
sg4
S'36.8'
p483
sg6
g7
sg8
S'2015-07-20-02-00-54'
p484
sg10
g11
sg12
S'25.1'
p485
sa(dp486
g2
g3
sg4
S'36.8'
p487
sg6
g7
sg8
S'2015-07-20-02-01-54'
p488
sg10
g11
sg12
S'25.1'
p489
sa(dp490
g2
g3
sg4
S'36.8'
p491
sg6
g7
sg8
S'2015-07-20-02-02-55'
p492
sg10
g11
sg12
S'25.1'
p493
sa(dp494
g2
g3
sg4
S'36.8'
p495
sg6
g7
sg8
S'2015-07-20-02-03-55'
p496
sg10
g11
sg12
S'25.1'
p497
sa(dp498
g2
g3
sg4
S'36.8'
p499
sg6
g7
sg8
S'2015-07-20-02-04-56'
p500
sg10
g11
sg12
S'25.1'
p501
sa(dp502
g2
g3
sg4
S'36.8'
p503
sg6
g7
sg8
S'2015-07-20-02-05-56'
p504
sg10
g11
sg12
S'25.1'
p505
sa(dp506
g2
g3
sg4
S'36.8'
p507
sg6
g7
sg8
S'2015-07-20-02-06-57'
p508
sg10
g11
sg12
S'25.1'
p509
sa(dp510
g2
g3
sg4
S'36.7'
p511
sg6
g7
sg8
S'2015-07-20-02-07-58'
p512
sg10
g11
sg12
S'25.1'
p513
sa(dp514
g2
g3
sg4
S'36.7'
p515
sg6
g7
sg8
S'2015-07-20-02-08-58'
p516
sg10
g11
sg12
S'25.1'
p517
sa(dp518
g2
g3
sg4
S'36.7'
p519
sg6
g7
sg8
S'2015-07-20-02-10-04'
p520
sg10
g11
sg12
S'25.1'
p521
sa(dp522
g2
g3
sg4
S'36.7'
p523
sg6
g7
sg8
S'2015-07-20-02-11-09'
p524
sg10
g11
sg12
S'25.1'
p525
sa(dp526
g2
g3
sg4
S'36.7'
p527
sg6
g7
sg8
S'2015-07-20-02-12-10'
p528
sg10
g11
sg12
S'25.1'
p529
sa(dp530
g2
g3
sg4
S'36.6'
p531
sg6
g7
sg8
S'2015-07-20-02-13-10'
p532
sg10
g11
sg12
S'25.1'
p533
sa(dp534
g2
g3
sg4
S'36.7'
p535
sg6
g7
sg8
S'2015-07-20-02-14-11'
p536
sg10
g11
sg12
S'25.1'
p537
sa(dp538
g2
g3
sg4
S'36.7'
p539
sg6
g7
sg8
S'2015-07-20-02-15-12'
p540
sg10
g11
sg12
S'25.1'
p541
sa(dp542
g2
g3
sg4
S'36.6'
p543
sg6
g7
sg8
S'2015-07-20-02-16-12'
p544
sg10
g11
sg12
S'25.1'
p545
sa(dp546
g2
g3
sg4
S'36.7'
p547
sg6
g7
sg8
S'2015-07-20-02-17-13'
p548
sg10
g11
sg12
S'25.1'
p549
sa(dp550
g2
g3
sg4
S'36.6'
p551
sg6
g7
sg8
S'2015-07-20-02-18-13'
p552
sg10
g11
sg12
S'25.1'
p553
sa(dp554
g2
g3
sg4
S'36.6'
p555
sg6
g7
sg8
S'2015-07-20-02-19-16'
p556
sg10
g11
sg12
S'25.1'
p557
sa(dp558
g2
g3
sg4
S'36.6'
p559
sg6
g7
sg8
S'2015-07-20-02-20-17'
p560
sg10
g11
sg12
S'25.1'
p561
sa(dp562
g2
g3
sg4
S'36.5'
p563
sg6
g7
sg8
S'2015-07-20-02-21-18'
p564
sg10
g11
sg12
S'25.1'
p565
sa(dp566
g2
g3
sg4
S'36.5'
p567
sg6
g7
sg8
S'2015-07-20-02-22-18'
p568
sg10
g11
sg12
S'25.1'
p569
sa(dp570
g2
g3
sg4
S'36.5'
p571
sg6
g7
sg8
S'2015-07-20-02-23-19'
p572
sg10
g11
sg12
S'25.1'
p573
sa(dp574
g2
g3
sg4
S'36.4'
p575
sg6
g7
sg8
S'2015-07-20-02-24-19'
p576
sg10
g11
sg12
S'25.1'
p577
sa(dp578
g2
g3
sg4
S'36.4'
p579
sg6
g7
sg8
S'2015-07-20-02-25-22'
p580
sg10
g11
sg12
S'25.1'
p581
sa(dp582
g2
g3
sg4
S'36.4'
p583
sg6
g7
sg8
S'2015-07-20-02-26-23'
p584
sg10
g11
sg12
S'25.1'
p585
sa(dp586
g2
g3
sg4
S'36.4'
p587
sg6
g7
sg8
S'2015-07-20-02-27-23'
p588
sg10
g11
sg12
S'25.1'
p589
sa(dp590
g2
g3
sg4
S'36.4'
p591
sg6
g7
sg8
S'2015-07-20-02-28-24'
p592
sg10
g11
sg12
S'25.1'
p593
sa(dp594
g2
g3
sg4
S'36.4'
p595
sg6
g7
sg8
S'2015-07-20-02-29-25'
p596
sg10
g11
sg12
S'25.0'
p597
sa(dp598
g2
g3
sg4
S'36.4'
p599
sg6
g7
sg8
S'2015-07-20-02-30-25'
p600
sg10
g11
sg12
S'25.1'
p601
sa(dp602
g2
g3
sg4
S'36.4'
p603
sg6
g7
sg8
S'2015-07-20-02-31-26'
p604
sg10
g11
sg12
S'25.1'
p605
sa(dp606
g2
g3
sg4
S'36.3'
p607
sg6
g7
sg8
S'2015-07-20-02-32-26'
p608
sg10
g11
sg12
S'25.1'
p609
sa(dp610
g2
g3
sg4
S'36.3'
p611
sg6
g7
sg8
S'2015-07-20-02-33-27'
p612
sg10
g11
sg12
S'25.0'
p613
sa(dp614
g2
g3
sg4
S'36.3'
p615
sg6
g7
sg8
S'2015-07-20-02-34-27'
p616
sg10
g11
sg12
S'25.1'
p617
sa(dp618
g2
g3
sg4
S'36.6'
p619
sg6
g7
sg8
S'2015-07-20-02-35-28'
p620
sg10
g11
sg12
S'25.1'
p621
sa(dp622
g2
g3
sg4
S'37.0'
p623
sg6
g7
sg8
S'2015-07-20-02-36-29'
p624
sg10
g11
sg12
S'25.1'
p625
sa(dp626
g2
g3
sg4
S'37.2'
p627
sg6
g7
sg8
S'2015-07-20-02-37-29'
p628
sg10
g11
sg12
S'25.1'
p629
sa(dp630
g2
g3
sg4
S'37.3'
p631
sg6
g7
sg8
S'2015-07-20-02-38-30'
p632
sg10
g11
sg12
S'25.2'
p633
sa(dp634
g2
g3
sg4
S'37.5'
p635
sg6
g7
sg8
S'2015-07-20-02-39-30'
p636
sg10
g11
sg12
S'25.2'
p637
sa(dp638
g2
g3
sg4
S'37.7'
p639
sg6
g7
sg8
S'2015-07-20-02-40-31'
p640
sg10
g11
sg12
S'25.3'
p641
sa(dp642
g2
g3
sg4
S'37.9'
p643
sg6
g7
sg8
S'2015-07-20-02-41-31'
p644
sg10
g11
sg12
S'25.3'
p645
sa(dp646
g2
g3
sg4
S'38.1'
p647
sg6
g7
sg8
S'2015-07-20-02-42-32'
p648
sg10
g11
sg12
S'25.4'
p649
sa(dp650
g2
g3
sg4
S'38.4'
p651
sg6
g7
sg8
S'2015-07-20-02-43-32'
p652
sg10
g11
sg12
S'25.4'
p653
sa(dp654
g2
g3
sg4
S'38.5'
p655
sg6
g7
sg8
S'2015-07-20-02-44-33'
p656
sg10
g11
sg12
S'25.5'
p657
sa(dp658
g2
g3
sg4
S'38.8'
p659
sg6
g7
sg8
S'2015-07-20-02-45-34'
p660
sg10
g11
sg12
S'25.6'
p661
sa(dp662
g2
g3
sg4
S'39.0'
p663
sg6
g7
sg8
S'2015-07-20-02-46-34'
p664
sg10
g11
sg12
S'25.6'
p665
sa(dp666
g2
g3
sg4
S'39.2'
p667
sg6
g7
sg8
S'2015-07-20-02-47-35'
p668
sg10
g11
sg12
S'25.6'
p669
sa(dp670
g2
g3
sg4
S'39.3'
p671
sg6
g7
sg8
S'2015-07-20-02-48-35'
p672
sg10
g11
sg12
S'25.7'
p673
sa(dp674
g2
g3
sg4
S'39.6'
p675
sg6
g7
sg8
S'2015-07-20-02-49-38'
p676
sg10
g11
sg12
S'25.7'
p677
sa(dp678
g2
g3
sg4
S'39.6'
p679
sg6
g7
sg8
S'2015-07-20-02-50-39'
p680
sg10
g11
sg12
S'25.7'
p681
sa(dp682
g2
g3
sg4
S'39.9'
p683
sg6
g7
sg8
S'2015-07-20-02-51-42'
p684
sg10
g11
sg12
S'25.8'
p685
sa(dp686
g2
g3
sg4
S'39.9'
p687
sg6
g7
sg8
S'2015-07-20-02-52-43'
p688
sg10
g11
sg12
S'25.8'
p689
sa(dp690
g2
g3
sg4
S'40.1'
p691
sg6
g7
sg8
S'2015-07-20-02-53-43'
p692
sg10
g11
sg12
S'25.8'
p693
sa(dp694
g2
g3
sg4
S'40.1'
p695
sg6
g7
sg8
S'2015-07-20-02-54-44'
p696
sg10
g11
sg12
S'25.9'
p697
sa(dp698
g2
g3
sg4
S'40.3'
p699
sg6
g7
sg8
S'2015-07-20-02-55-44'
p700
sg10
g11
sg12
S'25.9'
p701
sa(dp702
g2
g3
sg4
S'40.4'
p703
sg6
g7
sg8
S'2015-07-20-02-56-45'
p704
sg10
g11
sg12
S'25.9'
p705
sa(dp706
g2
g3
sg4
S'41.0'
p707
sg6
g7
sg8
S'2015-07-20-02-57-46'
p708
sg10
g11
sg12
S'26.0'
p709
sa(dp710
g2
g3
sg4
S'41.0'
p711
sg6
g7
sg8
S'2015-07-20-02-58-46'
p712
sg10
g11
sg12
S'26.0'
p713
sa(dp714
g2
g3
sg4
S'41.0'
p715
sg6
g7
sg8
S'2015-07-20-02-59-47'
p716
sg10
g11
sg12
S'26.1'
p717
sa(dp718
g2
g3
sg4
S'41.1'
p719
sg6
g7
sg8
S'2015-07-20-03-00-47'
p720
sg10
g11
sg12
S'26.1'
p721
sa(dp722
g2
g3
sg4
S'41.2'
p723
sg6
g7
sg8
S'2015-07-20-03-01-48'
p724
sg10
g11
sg12
S'26.1'
p725
sa(dp726
g2
g3
sg4
S'41.4'
p727
sg6
g7
sg8
S'2015-07-20-03-02-48'
p728
sg10
g11
sg12
S'26.2'
p729
sa(dp730
g2
g3
sg4
S'41.4'
p731
sg6
g7
sg8
S'2015-07-20-03-03-49'
p732
sg10
g11
sg12
S'26.2'
p733
sa(dp734
g2
g3
sg4
S'41.5'
p735
sg6
g7
sg8
S'2015-07-20-03-04-49'
p736
sg10
g11
sg12
S'26.2'
p737
sa(dp738
g2
g3
sg4
S'41.5'
p739
sg6
g7
sg8
S'2015-07-20-03-05-50'
p740
sg10
g11
sg12
S'26.3'
p741
sa(dp742
g2
g3
sg4
S'41.6'
p743
sg6
g7
sg8
S'2015-07-20-03-06-51'
p744
sg10
g11
sg12
S'26.2'
p745
sa(dp746
g2
g3
sg4
S'41.6'
p747
sg6
g7
sg8
S'2015-07-20-03-07-51'
p748
sg10
g11
sg12
S'26.3'
p749
sa(dp750
g2
g3
sg4
S'41.6'
p751
sg6
g7
sg8
S'2015-07-20-03-08-52'
p752
sg10
g11
sg12
S'26.3'
p753
sa(dp754
g2
g3
sg4
S'41.6'
p755
sg6
g7
sg8
S'2015-07-20-03-09-52'
p756
sg10
g11
sg12
S'26.2'
p757
sa(dp758
g2
g3
sg4
S'41.4'
p759
sg6
g7
sg8
S'2015-07-20-03-10-55'
p760
sg10
g11
sg12
S'26.2'
p761
sa(dp762
g2
g3
sg4
S'41.4'
p763
sg6
g7
sg8
S'2015-07-20-03-11-56'
p764
sg10
g11
sg12
S'26.2'
p765
sa(dp766
g2
g3
sg4
S'41.3'
p767
sg6
g7
sg8
S'2015-07-20-03-12-57'
p768
sg10
g11
sg12
S'26.1'
p769
sa(dp770
g2
g3
sg4
S'41.2'
p771
sg6
g7
sg8
S'2015-07-20-03-13-57'
p772
sg10
g11
sg12
S'26.1'
p773
sa(dp774
g2
g3
sg4
S'41.1'
p775
sg6
g7
sg8
S'2015-07-20-03-14-58'
p776
sg10
g11
sg12
S'26.0'
p777
sa(dp778
g2
g3
sg4
S'41.0'
p779
sg6
g7
sg8
S'2015-07-20-03-15-58'
p780
sg10
g11
sg12
S'26.0'
p781
sa(dp782
g2
g3
sg4
S'40.4'
p783
sg6
g7
sg8
S'2015-07-20-03-16-59'
p784
sg10
g11
sg12
S'25.9'
p785
sa(dp786
g2
g3
sg4
S'40.3'
p787
sg6
g7
sg8
S'2015-07-20-03-17-59'
p788
sg10
g11
sg12
S'25.9'
p789
sa(dp790
g2
g3
sg4
S'40.2'
p791
sg6
g7
sg8
S'2015-07-20-03-19-00'
p792
sg10
g11
sg12
S'25.9'
p793
sa(dp794
g2
g3
sg4
S'40.1'
p795
sg6
g7
sg8
S'2015-07-20-03-20-01'
p796
sg10
g11
sg12
S'25.8'
p797
sa(dp798
g2
g3
sg4
S'40.0'
p799
sg6
g7
sg8
S'2015-07-20-03-21-01'
p800
sg10
g11
sg12
S'25.8'
p801
sa(dp802
g2
g3
sg4
S'39.9'
p803
sg6
g7
sg8
S'2015-07-20-03-22-02'
p804
sg10
g11
sg12
S'25.8'
p805
sa(dp806
g2
g3
sg4
S'39.8'
p807
sg6
g7
sg8
S'2015-07-20-03-23-02'
p808
sg10
g11
sg12
S'25.7'
p809
sa(dp810
g2
g3
sg4
S'39.8'
p811
sg6
g7
sg8
S'2015-07-20-03-24-03'
p812
sg10
g11
sg12
S'25.7'
p813
sa(dp814
g2
g3
sg4
S'39.6'
p815
sg6
g7
sg8
S'2015-07-20-03-25-03'
p816
sg10
g11
sg12
S'25.7'
p817
sa(dp818
g2
g3
sg4
S'39.6'
p819
sg6
g7
sg8
S'2015-07-20-03-26-04'
p820
sg10
g11
sg12
S'25.6'
p821
sa(dp822
g2
g3
sg4
S'39.5'
p823
sg6
g7
sg8
S'2015-07-20-03-27-04'
p824
sg10
g11
sg12
S'25.6'
p825
sa(dp826
g2
g3
sg4
S'39.4'
p827
sg6
g7
sg8
S'2015-07-20-03-28-05'
p828
sg10
g11
sg12
S'25.6'
p829
sa(dp830
g2
g3
sg4
S'39.3'
p831
sg6
g7
sg8
S'2015-07-20-03-29-06'
p832
sg10
g11
sg12
S'25.6'
p833
sa(dp834
g2
g3
sg4
S'39.3'
p835
sg6
g7
sg8
S'2015-07-20-03-30-06'
p836
sg10
g11
sg12
S'25.6'
p837
sa(dp838
g2
g3
sg4
S'39.2'
p839
sg6
g7
sg8
S'2015-07-20-03-31-07'
p840
sg10
g11
sg12
S'25.6'
p841
sa(dp842
g2
g3
sg4
S'39.2'
p843
sg6
g7
sg8
S'2015-07-20-03-32-07'
p844
sg10
g11
sg12
S'25.6'
p845
sa(dp846
g2
g3
sg4
S'39.1'
p847
sg6
g7
sg8
S'2015-07-20-03-33-08'
p848
sg10
g11
sg12
S'25.5'
p849
sa(dp850
g2
g3
sg4
S'38.9'
p851
sg6
g7
sg8
S'2015-07-20-03-34-11'
p852
sg10
g11
sg12
S'25.5'
p853
sa(dp854
g2
g3
sg4
S'38.9'
p855
sg6
g7
sg8
S'2015-07-20-03-35-12'
p856
sg10
g11
sg12
S'25.5'
p857
sa(dp858
g2
g3
sg4
S'38.9'
p859
sg6
g7
sg8
S'2015-07-20-03-36-12'
p860
sg10
g11
sg12
S'25.5'
p861
sa(dp862
g2
g3
sg4
S'38.7'
p863
sg6
g7
sg8
S'2015-07-20-03-37-15'
p864
sg10
g11
sg12
S'25.4'
p865
sa(dp866
g2
g3
sg4
S'38.7'
p867
sg6
g7
sg8
S'2015-07-20-03-38-16'
p868
sg10
g11
sg12
S'25.5'
p869
sa(dp870
g2
g3
sg4
S'38.7'
p871
sg6
g7
sg8
S'2015-07-20-03-39-16'
p872
sg10
g11
sg12
S'25.4'
p873
sa(dp874
g2
g3
sg4
S'38.6'
p875
sg6
g7
sg8
S'2015-07-20-03-40-17'
p876
sg10
g11
sg12
S'25.4'
p877
sa(dp878
g2
g3
sg4
S'38.5'
p879
sg6
g7
sg8
S'2015-07-20-03-41-17'
p880
sg10
g11
sg12
S'25.4'
p881
sa(dp882
g2
g3
sg4
S'38.5'
p883
sg6
g7
sg8
S'2015-07-20-03-42-18'
p884
sg10
g11
sg12
S'25.4'
p885
sa(dp886
g2
g3
sg4
S'38.4'
p887
sg6
g7
sg8
S'2015-07-20-03-43-19'
p888
sg10
g11
sg12
S'25.4'
p889
sa(dp890
g2
g3
sg4
S'38.4'
p891
sg6
g7
sg8
S'2015-07-20-03-44-19'
p892
sg10
g11
sg12
S'25.4'
p893
sa(dp894
g2
g3
sg4
S'38.2'
p895
sg6
g7
sg8
S'2015-07-20-03-45-22'
p896
sg10
g11
sg12
S'25.3'
p897
sa(dp898
g2
g3
sg4
S'38.2'
p899
sg6
g7
sg8
S'2015-07-20-03-46-23'
p900
sg10
g11
sg12
S'25.3'
p901
sa(dp902
g2
g3
sg4
S'38.2'
p903
sg6
g7
sg8
S'2015-07-20-03-47-23'
p904
sg10
g11
sg12
S'25.3'
p905
sa(dp906
g2
g3
sg4
S'38.1'
p907
sg6
g7
sg8
S'2015-07-20-03-48-24'
p908
sg10
g11
sg12
S'25.3'
p909
sa(dp910
g2
g3
sg4
S'38.1'
p911
sg6
g7
sg8
S'2015-07-20-03-49-25'
p912
sg10
g11
sg12
S'25.3'
p913
sa(dp914
g2
g3
sg4
S'38.1'
p915
sg6
g7
sg8
S'2015-07-20-03-50-25'
p916
sg10
g11
sg12
S'25.3'
p917
sa(dp918
g2
g3
sg4
S'38.0'
p919
sg6
g7
sg8
S'2015-07-20-03-51-26'
p920
sg10
g11
sg12
S'25.3'
p921
sa(dp922
g2
g3
sg4
S'37.9'
p923
sg6
g7
sg8
S'2015-07-20-03-52-26'
p924
sg10
g11
sg12
S'25.3'
p925
sa(dp926
g2
g3
sg4
S'37.9'
p927
sg6
g7
sg8
S'2015-07-20-03-53-27'
p928
sg10
g11
sg12
S'25.3'
p929
sa(dp930
g2
g3
sg4
S'37.8'
p931
sg6
g7
sg8
S'2015-07-20-03-54-27'
p932
sg10
g11
sg12
S'25.3'
p933
sa(dp934
g2
g3
sg4
S'37.8'
p935
sg6
g7
sg8
S'2015-07-20-03-55-28'
p936
sg10
g11
sg12
S'25.2'
p937
sa(dp938
g2
g3
sg4
S'37.7'
p939
sg6
g7
sg8
S'2015-07-20-03-56-34'
p940
sg10
g11
sg12
S'25.2'
p941
sa(dp942
g2
g3
sg4
S'37.7'
p943
sg6
g7
sg8
S'2015-07-20-03-57-34'
p944
sg10
g11
sg12
S'25.2'
p945
sa(dp946
g2
g3
sg4
S'37.6'
p947
sg6
g7
sg8
S'2015-07-20-03-58-35'
p948
sg10
g11
sg12
S'25.2'
p949
sa(dp950
g2
g3
sg4
S'37.6'
p951
sg6
g7
sg8
S'2015-07-20-03-59-35'
p952
sg10
g11
sg12
S'25.2'
p953
sa(dp954
g2
g3
sg4
S'37.6'
p955
sg6
g7
sg8
S'2015-07-20-04-00-36'
p956
sg10
g11
sg12
S'25.2'
p957
sa(dp958
g2
g3
sg4
S'37.6'
p959
sg6
g7
sg8
S'2015-07-20-04-01-36'
p960
sg10
g11
sg12
S'25.2'
p961
sa(dp962
g2
g3
sg4
S'38.2'
p963
sg6
g7
sg8
S'2015-07-20-04-02-40'
p964
sg10
g11
sg12
S'25.2'
p965
sa(dp966
g2
g3
sg4
S'38.2'
p967
sg6
g7
sg8
S'2015-07-20-04-03-40'
p968
sg10
g11
sg12
S'25.2'
p969
sa(dp970
g2
g3
sg4
S'38.4'
p971
sg6
g7
sg8
S'2015-07-20-04-04-41'
p972
sg10
g11
sg12
S'25.2'
p973
sa(dp974
g2
g3
sg4
S'38.7'
p975
sg6
g7
sg8
S'2015-07-20-04-05-41'
p976
sg10
g11
sg12
S'25.3'
p977
sa(dp978
g2
g3
sg4
S'38.9'
p979
sg6
g7
sg8
S'2015-07-20-04-06-42'
p980
sg10
g11
sg12
S'25.4'
p981
sa(dp982
g2
g3
sg4
S'39.3'
p983
sg6
g7
sg8
S'2015-07-20-04-07-45'
p984
sg10
g11
sg12
S'25.5'
p985
sa(dp986
g2
g3
sg4
S'39.3'
p987
sg6
g7
sg8
S'2015-07-20-04-08-45'
p988
sg10
g11
sg12
S'25.5'
p989
sa(dp990
g2
g3
sg4
S'39.4'
p991
sg6
g7
sg8
S'2015-07-20-04-09-46'
p992
sg10
g11
sg12
S'25.5'
p993
sa(dp994
g2
g3
sg4
S'39.6'
p995
sg6
g7
sg8
S'2015-07-20-04-10-47'
p996
sg10
g11
sg12
S'25.6'
p997
sa(dp998
g2
g3
sg4
S'39.7'
p999
sg6
g7
sg8
S'2015-07-20-04-11-47'
p1000
sg10
g11
sg12
S'25.6'
p1001
sa(dp1002
g2
g3
sg4
S'40.0'
p1003
sg6
g7
sg8
S'2015-07-20-04-12-48'
p1004
sg10
g11
sg12
S'25.7'
p1005
sa(dp1006
g2
g3
sg4
S'40.3'
p1007
sg6
g7
sg8
S'2015-07-20-04-13-48'
p1008
sg10
g11
sg12
S'25.7'
p1009
sa(dp1010
g2
g3
sg4
S'40.9'
p1011
sg6
g7
sg8
S'2015-07-20-04-14-54'
p1012
sg10
g11
sg12
S'25.8'
p1013
sa(dp1014
g2
g3
sg4
S'40.9'
p1015
sg6
g7
sg8
S'2015-07-20-04-15-55'
p1016
sg10
g11
sg12
S'25.8'
p1017
sa(dp1018
g2
g3
sg4
S'40.9'
p1019
sg6
g7
sg8
S'2015-07-20-04-16-55'
p1020
sg10
g11
sg12
S'25.8'
p1021
sa(dp1022
g2
g3
sg4
S'41.4'
p1023
sg6
g7
sg8
S'2015-07-20-04-17-58'
p1024
sg10
g11
sg12
S'25.9'
p1025
sa(dp1026
g2
g3
sg4
S'41.4'
p1027
sg6
g7
sg8
S'2015-07-20-04-18-59'
p1028
sg10
g11
sg12
S'25.9'
p1029
sa(dp1030
g2
g3
sg4
S'41.6'
p1031
sg6
g7
sg8
S'2015-07-20-04-19-59'
p1032
sg10
g11
sg12
S'25.9'
p1033
sa(dp1034
g2
g3
sg4
S'42.1'
p1035
sg6
g7
sg8
S'2015-07-20-04-21-00'
p1036
sg10
g11
sg12
S'26.0'
p1037
sa(dp1038
g2
g3
sg4
S'42.3'
p1039
sg6
g7
sg8
S'2015-07-20-04-22-00'
p1040
sg10
g11
sg12
S'26.0'
p1041
sa(dp1042
g2
g3
sg4
S'42.3'
p1043
sg6
g7
sg8
S'2015-07-20-04-23-01'
p1044
sg10
g11
sg12
S'26.1'
p1045
sa(dp1046
g2
g3
sg4
S'42.4'
p1047
sg6
g7
sg8
S'2015-07-20-04-24-02'
p1048
sg10
g11
sg12
S'26.1'
p1049
sa(dp1050
g2
g3
sg4
S'42.6'
p1051
sg6
g7
sg8
S'2015-07-20-04-25-02'
p1052
sg10
g11
sg12
S'26.1'
p1053
sa(dp1054
g2
g3
sg4
S'42.6'
p1055
sg6
g7
sg8
S'2015-07-20-04-26-03'
p1056
sg10
g11
sg12
S'26.1'
p1057
sa(dp1058
g2
g3
sg4
S'42.6'
p1059
sg6
g7
sg8
S'2015-07-20-04-27-03'
p1060
sg10
g11
sg12
S'26.2'
p1061
sa(dp1062
g2
g3
sg4
S'42.7'
p1063
sg6
g7
sg8
S'2015-07-20-04-28-04'
p1064
sg10
g11
sg12
S'26.2'
p1065
sa(dp1066
g2
g3
sg4
S'42.8'
p1067
sg6
g7
sg8
S'2015-07-20-04-29-04'
p1068
sg10
g11
sg12
S'26.2'
p1069
sa(dp1070
g2
g3
sg4
S'43.0'
p1071
sg6
g7
sg8
S'2015-07-20-04-30-07'
p1072
sg10
g11
sg12
S'26.3'
p1073
sa(dp1074
g2
g3
sg4
S'43.0'
p1075
sg6
g7
sg8
S'2015-07-20-04-31-08'
p1076
sg10
g11
sg12
S'26.3'
p1077
sa(dp1078
g2
g3
sg4
S'43.1'
p1079
sg6
g7
sg8
S'2015-07-20-04-32-09'
p1080
sg10
g11
sg12
S'26.3'
p1081
sa(dp1082
g2
g3
sg4
S'43.1'
p1083
sg6
g7
sg8
S'2015-07-20-04-33-09'
p1084
sg10
g11
sg12
S'26.3'
p1085
sa(dp1086
g2
g3
sg4
S'43.2'
p1087
sg6
g7
sg8
S'2015-07-20-04-34-10'
p1088
sg10
g11
sg12
S'26.3'
p1089
sa(dp1090
g2
g3
sg4
S'43.1'
p1091
sg6
g7
sg8
S'2015-07-20-04-35-10'
p1092
sg10
g11
sg12
S'26.3'
p1093
sa(dp1094
g2
g3
sg4
S'43.1'
p1095
sg6
g7
sg8
S'2015-07-20-04-36-11'
p1096
sg10
g11
sg12
S'26.3'
p1097
sa(dp1098
g2
g3
sg4
S'43.0'
p1099
sg6
g7
sg8
S'2015-07-20-04-37-11'
p1100
sg10
g11
sg12
S'26.3'
p1101
sa(dp1102
g2
g3
sg4
S'42.9'
p1103
sg6
g7
sg8
S'2015-07-20-04-38-12'
p1104
sg10
g11
sg12
S'26.3'
p1105
sa(dp1106
g2
g3
sg4
S'42.8'
p1107
sg6
g7
sg8
S'2015-07-20-04-39-13'
p1108
sg10
g11
sg12
S'26.2'
p1109
sa(dp1110
g2
g3
sg4
S'42.7'
p1111
sg6
g7
sg8
S'2015-07-20-04-40-13'
p1112
sg10
g11
sg12
S'26.2'
p1113
sa(dp1114
g2
g3
sg4
S'42.6'
p1115
sg6
g7
sg8
S'2015-07-20-04-41-14'
p1116
sg10
g11
sg12
S'26.1'
p1117
sa(dp1118
g2
g3
sg4
S'42.5'
p1119
sg6
g7
sg8
S'2015-07-20-04-42-14'
p1120
sg10
g11
sg12
S'26.1'
p1121
sa(dp1122
g2
g3
sg4
S'42.3'
p1123
sg6
g7
sg8
S'2015-07-20-04-43-15'
p1124
sg10
g11
sg12
S'26.0'
p1125
sa(dp1126
g2
g3
sg4
S'42.2'
p1127
sg6
g7
sg8
S'2015-07-20-04-44-15'
p1128
sg10
g11
sg12
S'26.0'
p1129
sa(dp1130
g2
g3
sg4
S'41.6'
p1131
sg6
g7
sg8
S'2015-07-20-04-45-16'
p1132
sg10
g11
sg12
S'25.9'
p1133
sa(dp1134
g2
g3
sg4
S'41.4'
p1135
sg6
g7
sg8
S'2015-07-20-04-46-17'
p1136
sg10
g11
sg12
S'25.9'
p1137
sa(dp1138
g2
g3
sg4
S'41.4'
p1139
sg6
g7
sg8
S'2015-07-20-04-47-17'
p1140
sg10
g11
sg12
S'25.9'
p1141
sa(dp1142
g2
g3
sg4
S'41.2'
p1143
sg6
g7
sg8
S'2015-07-20-04-48-18'
p1144
sg10
g11
sg12
S'25.9'
p1145
sa(dp1146
g2
g3
sg4
S'41.1'
p1147
sg6
g7
sg8
S'2015-07-20-04-49-18'
p1148
sg10
g11
sg12
S'25.8'
p1149
sa(dp1150
g2
g3
sg4
S'41.0'
p1151
sg6
g7
sg8
S'2015-07-20-04-50-19'
p1152
sg10
g11
sg12
S'25.7'
p1153
sa(dp1154
g2
g3
sg4
S'40.9'
p1155
sg6
g7
sg8
S'2015-07-20-04-51-19'
p1156
sg10
g11
sg12
S'25.7'
p1157
sa(dp1158
g2
g3
sg4
S'40.8'
p1159
sg6
g7
sg8
S'2015-07-20-04-52-20'
p1160
sg10
g11
sg12
S'25.7'
p1161
sa(dp1162
g2
g3
sg4
S'40.7'
p1163
sg6
g7
sg8
S'2015-07-20-04-53-21'
p1164
sg10
g11
sg12
S'25.7'
p1165
sa(dp1166
g2
g3
sg4
S'40.6'
p1167
sg6
g7
sg8
S'2015-07-20-04-54-21'
p1168
sg10
g11
sg12
S'25.6'
p1169
sa(dp1170
g2
g3
sg4
S'40.5'
p1171
sg6
g7
sg8
S'2015-07-20-04-55-22'
p1172
sg10
g11
sg12
S'25.6'
p1173
sa(dp1174
g2
g3
sg4
S'40.4'
p1175
sg6
g7
sg8
S'2015-07-20-04-56-22'
p1176
sg10
g11
sg12
S'25.6'
p1177
sa(dp1178
g2
g3
sg4
S'40.3'
p1179
sg6
g7
sg8
S'2015-07-20-04-57-23'
p1180
sg10
g11
sg12
S'25.6'
p1181
sa(dp1182
g2
g3
sg4
S'40.2'
p1183
sg6
g7
sg8
S'2015-07-20-04-58-23'
p1184
sg10
g11
sg12
S'25.6'
p1185
sa(dp1186
g2
g3
sg4
S'40.0'
p1187
sg6
g7
sg8
S'2015-07-20-04-59-24'
p1188
sg10
g11
sg12
S'25.5'
p1189
sa(dp1190
g2
g3
sg4
S'40.0'
p1191
sg6
g7
sg8
S'2015-07-20-05-00-25'
p1192
sg10
g11
sg12
S'25.5'
p1193
sa(dp1194
g2
g3
sg4
S'39.9'
p1195
sg6
g7
sg8
S'2015-07-20-05-01-25'
p1196
sg10
g11
sg12
S'25.5'
p1197
sa(dp1198
g2
g3
sg4
S'39.8'
p1199
sg6
g7
sg8
S'2015-07-20-05-02-26'
p1200
sg10
g11
sg12
S'25.5'
p1201
sa(dp1202
g2
g3
sg4
S'39.7'
p1203
sg6
g7
sg8
S'2015-07-20-05-03-26'
p1204
sg10
g11
sg12
S'25.5'
p1205
sa(dp1206
g2
g3
sg4
S'39.6'
p1207
sg6
g7
sg8
S'2015-07-20-05-04-27'
p1208
sg10
g11
sg12
S'25.4'
p1209
sa(dp1210
g2
g3
sg4
S'39.5'
p1211
sg6
g7
sg8
S'2015-07-20-05-05-27'
p1212
sg10
g11
sg12
S'25.4'
p1213
sa(dp1214
g2
g3
sg4
S'39.5'
p1215
sg6
g7
sg8
S'2015-07-20-05-06-28'
p1216
sg10
g11
sg12
S'25.4'
p1217
sa(dp1218
g2
g3
sg4
S'39.5'
p1219
sg6
g7
sg8
S'2015-07-20-05-07-29'
p1220
sg10
g11
sg12
S'25.4'
p1221
sa(dp1222
g2
g3
sg4
S'39.4'
p1223
sg6
g7
sg8
S'2015-07-20-05-08-29'
p1224
sg10
g11
sg12
S'25.3'
p1225
sa(dp1226
g2
g3
sg4
S'39.3'
p1227
sg6
g7
sg8
S'2015-07-20-05-09-30'
p1228
sg10
g11
sg12
S'25.4'
p1229
sa(dp1230
g2
g3
sg4
S'39.2'
p1231
sg6
g7
sg8
S'2015-07-20-05-10-30'
p1232
sg10
g11
sg12
S'25.3'
p1233
sa(dp1234
g2
g3
sg4
S'39.2'
p1235
sg6
g7
sg8
S'2015-07-20-05-11-31'
p1236
sg10
g11
sg12
S'25.3'
p1237
sa(dp1238
g2
g3
sg4
S'39.1'
p1239
sg6
g7
sg8
S'2015-07-20-05-12-31'
p1240
sg10
g11
sg12
S'25.3'
p1241
sa(dp1242
g2
g3
sg4
S'39.0'
p1243
sg6
g7
sg8
S'2015-07-20-05-13-32'
p1244
sg10
g11
sg12
S'25.3'
p1245
sa(dp1246
g2
g3
sg4
S'38.9'
p1247
sg6
g7
sg8
S'2015-07-20-05-14-32'
p1248
sg10
g11
sg12
S'25.3'
p1249
sa(dp1250
g2
g3
sg4
S'38.9'
p1251
sg6
g7
sg8
S'2015-07-20-05-15-33'
p1252
sg10
g11
sg12
S'25.3'
p1253
sa(dp1254
g2
g3
sg4
S'38.9'
p1255
sg6
g7
sg8
S'2015-07-20-05-16-34'
p1256
sg10
g11
sg12
S'25.2'
p1257
sa(dp1258
g2
g3
sg4
S'38.8'
p1259
sg6
g7
sg8
S'2015-07-20-05-17-34'
p1260
sg10
g11
sg12
S'25.2'
p1261
sa(dp1262
g2
g3
sg4
S'38.7'
p1263
sg6
g7
sg8
S'2015-07-20-05-18-35'
p1264
sg10
g11
sg12
S'25.2'
p1265
sa(dp1266
g2
g3
sg4
S'38.6'
p1267
sg6
g7
sg8
S'2015-07-20-05-19-43'
p1268
sg10
g11
sg12
S'25.2'
p1269
sa(dp1270
g2
g3
sg4
S'38.5'
p1271
sg6
g7
sg8
S'2015-07-20-05-20-46'
p1272
sg10
g11
sg12
S'25.2'
p1273
sa(dp1274
g2
g3
sg4
S'38.5'
p1275
sg6
g7
sg8
S'2015-07-20-05-21-49'
p1276
sg10
g11
sg12
S'25.2'
p1277
sa(dp1278
g2
g3
sg4
S'38.5'
p1279
sg6
g7
sg8
S'2015-07-20-05-22-50'
p1280
sg10
g11
sg12
S'25.2'
p1281
sa(dp1282
g2
g3
sg4
S'38.4'
p1283
sg6
g7
sg8
S'2015-07-20-05-23-50'
p1284
sg10
S'1'
p1285
sg12
S'25.2'
p1286
sa(dp1287
g2
g3
sg4
S'38.4'
p1288
sg6
g7
sg8
S'2015-07-20-05-24-51'
p1289
sg10
g11
sg12
S'25.2'
p1290
sa(dp1291
g2
g3
sg4
S'38.5'
p1292
sg6
g7
sg8
S'2015-07-20-05-25-51'
p1293
sg10
g11
sg12
S'25.2'
p1294
sa(dp1295
g2
g3
sg4
S'38.9'
p1296
sg6
g7
sg8
S'2015-07-20-05-26-52'
p1297
sg10
g11
sg12
S'25.2'
p1298
sa(dp1299
g2
g3
sg4
S'39.2'
p1300
sg6
g7
sg8
S'2015-07-20-05-27-55'
p1301
sg10
g11
sg12
S'25.3'
p1302
sa(dp1303
g2
g3
sg4
S'39.2'
p1304
sg6
g7
sg8
S'2015-07-20-05-28-56'
p1305
sg10
g11
sg12
S'25.3'
p1306
sa(dp1307
g2
g3
sg4
S'39.6'
p1308
sg6
g7
sg8
S'2015-07-20-05-30-04'
p1309
sg10
g11
sg12
S'25.4'
p1310
sa(dp1311
g2
g3
sg4
S'39.6'
p1312
sg6
g7
sg8
S'2015-07-20-05-31-04'
p1313
sg10
g11
sg12
S'25.3'
p1314
sa(dp1315
g2
g3
sg4
S'39.8'
p1316
sg6
g7
sg8
S'2015-07-20-05-32-05'
p1317
sg10
g11
sg12
S'25.4'
p1318
sa(dp1319
g2
g3
sg4
S'40.0'
p1320
sg6
g7
sg8
S'2015-07-20-05-33-05'
p1321
sg10
g11
sg12
S'25.5'
p1322
sa(dp1323
g2
g3
sg4
S'40.3'
p1324
sg6
g7
sg8
S'2015-07-20-05-34-06'
p1325
sg10
g11
sg12
S'25.5'
p1326
sa(dp1327
g2
g3
sg4
S'40.5'
p1328
sg6
g7
sg8
S'2015-07-20-05-35-07'
p1329
sg10
g11
sg12
S'25.5'
p1330
sa(dp1331
g2
g3
sg4
S'40.8'
p1332
sg6
g7
sg8
S'2015-07-20-05-36-07'
p1333
sg10
g11
sg12
S'25.6'
p1334
sa(dp1335
g2
g3
sg4
S'41.3'
p1336
sg6
g7
sg8
S'2015-07-20-05-37-10'
p1337
sg10
g11
sg12
S'25.7'
p1338
sa(dp1339
g2
g3
sg4
S'41.3'
p1340
sg6
g7
sg8
S'2015-07-20-05-38-11'
p1341
sg10
g11
sg12
S'25.7'
p1342
sa(dp1343
g2
g3
sg4
S'41.4'
p1344
sg6
g7
sg8
S'2015-07-20-05-39-11'
p1345
sg10
g11
sg12
S'25.7'
p1346
sa(dp1347
g2
g3
sg4
S'41.5'
p1348
sg6
g7
sg8
S'2015-07-20-05-40-12'
p1349
sg10
g11
sg12
S'25.7'
p1350
sa(dp1351
g2
g3
sg4
S'41.8'
p1352
sg6
g7
sg8
S'2015-07-20-05-41-13'
p1353
sg10
g11
sg12
S'25.7'
p1354
sa(dp1355
g2
g3
sg4
S'42.0'
p1356
sg6
g7
sg8
S'2015-07-20-05-42-13'
p1357
sg10
g11
sg12
S'25.8'
p1358
sa(dp1359
g2
g3
sg4
S'42.3'
p1360
sg6
g7
sg8
S'2015-07-20-05-43-14'
p1361
sg10
g11
sg12
S'25.8'
p1362
sa(dp1363
g2
g3
sg4
S'42.3'
p1364
sg6
g7
sg8
S'2015-07-20-05-44-14'
p1365
sg10
g11
sg12
S'25.9'
p1366
sa(dp1367
g2
g3
sg4
S'42.4'
p1368
sg6
g7
sg8
S'2015-07-20-05-45-15'
p1369
sg10
g11
sg12
S'25.9'
p1370
sa(dp1371
g2
g3
sg4
S'42.5'
p1372
sg6
g7
sg8
S'2015-07-20-05-46-15'
p1373
sg10
g11
sg12
S'25.9'
p1374
sa(dp1375
g2
g3
sg4
S'43.2'
p1376
sg6
g7
sg8
S'2015-07-20-05-47-21'
p1377
sg10
g11
sg12
S'26.0'
p1378
sa(dp1379
g2
g3
sg4
S'43.2'
p1380
sg6
g7
sg8
S'2015-07-20-05-48-22'
p1381
sg10
g11
sg12
S'26.0'
p1382
sa(dp1383
g2
g3
sg4
S'43.4'
p1384
sg6
g7
sg8
S'2015-07-20-05-49-22'
p1385
sg10
g11
sg12
S'26.1'
p1386
sa(dp1387
g2
g3
sg4
S'43.4'
p1388
sg6
g7
sg8
S'2015-07-20-05-50-23'
p1389
sg10
g11
sg12
S'26.1'
p1390
sa(dp1391
g2
g3
sg4
S'43.5'
p1392
sg6
g7
sg8
S'2015-07-20-05-51-26'
p1393
sg10
g11
sg12
S'26.2'
p1394
sa(dp1395
g2
g3
sg4
S'43.6'
p1396
sg6
g7
sg8
S'2015-07-20-05-52-26'
p1397
sg10
g11
sg12
S'26.1'
p1398
sa(dp1399
g2
g3
sg4
S'43.5'
p1400
sg6
g7
sg8
S'2015-07-20-05-53-27'
p1401
sg10
g11
sg12
S'26.2'
p1402
sa(dp1403
g2
g3
sg4
S'43.8'
p1404
sg6
g7
sg8
S'2015-07-20-05-54-38'
p1405
sg10
g11
sg12
S'26.2'
p1406
sa(dp1407
g2
g3
sg4
S'43.8'
p1408
sg6
g7
sg8
S'2015-07-20-05-55-38'
p1409
sg10
g11
sg12
S'26.2'
p1410
sa(dp1411
g2
g3
sg4
S'43.8'
p1412
sg6
g7
sg8
S'2015-07-20-05-56-39'
p1413
sg10
g11
sg12
S'26.2'
p1414
sa(dp1415
g2
g3
sg4
S'43.9'
p1416
sg6
g7
sg8
S'2015-07-20-05-57-39'
p1417
sg10
g11
sg12
S'26.2'
p1418
sa(dp1419
g2
g3
sg4
S'43.9'
p1420
sg6
g7
sg8
S'2015-07-20-05-58-40'
p1421
sg10
g11
sg12
S'26.3'
p1422
sa(dp1423
g2
g3
sg4
S'44.0'
p1424
sg6
g7
sg8
S'2015-07-20-05-59-40'
p1425
sg10
g11
sg12
S'26.3'
p1426
sa(dp1427
g2
g3
sg4
S'44.1'
p1428
sg6
g7
sg8
S'2015-07-20-06-00-41'
p1429
sg10
g11
sg12
S'26.4'
p1430
sa(dp1431
g2
g3
sg4
S'44.1'
p1432
sg6
g7
sg8
S'2015-07-20-06-01-44'
p1433
sg10
g11
sg12
S'26.4'
p1434
sa(dp1435
g2
g3
sg4
S'44.1'
p1436
sg6
g7
sg8
S'2015-07-20-06-02-45'
p1437
sg10
g11
sg12
S'26.4'
p1438
sa(dp1439
g2
g3
sg4
S'44.0'
p1440
sg6
g7
sg8
S'2015-07-20-06-03-45'
p1441
sg10
g11
sg12
S'26.4'
p1442
sa(dp1443
g2
g3
sg4
S'43.9'
p1444
sg6
g7
sg8
S'2015-07-20-06-04-46'
p1445
sg10
g11
sg12
S'26.4'
p1446
sa(dp1447
g2
g3
sg4
S'43.8'
p1448
sg6
g7
sg8
S'2015-07-20-06-05-46'
p1449
sg10
g11
sg12
S'26.3'
p1450
sa(dp1451
g2
g3
sg4
S'43.7'
p1452
sg6
g7
sg8
S'2015-07-20-06-06-47'
p1453
sg10
g11
sg12
S'26.3'
p1454
sa(dp1455
g2
g3
sg4
S'43.6'
p1456
sg6
g7
sg8
S'2015-07-20-06-07-48'
p1457
sg10
g11
sg12
S'26.2'
p1458
sa(dp1459
g2
g3
sg4
S'43.5'
p1460
sg6
g7
sg8
S'2015-07-20-06-08-48'
p1461
sg10
g11
sg12
S'26.2'
p1462
sa(dp1463
g2
g3
sg4
S'43.3'
p1464
sg6
g7
sg8
S'2015-07-20-06-09-49'
p1465
sg10
g11
sg12
S'26.1'
p1466
sa(dp1467
g2
g3
sg4
S'43.2'
p1468
sg6
g7
sg8
S'2015-07-20-06-10-49'
p1469
sg10
g11
sg12
S'26.1'
p1470
sa(dp1471
g2
g3
sg4
S'42.5'
p1472
sg6
g7
sg8
S'2015-07-20-06-11-52'
p1473
sg10
g11
sg12
S'25.9'
p1474
sa(dp1475
g2
g3
sg4
S'42.5'
p1476
sg6
g7
sg8
S'2015-07-20-06-12-53'
p1477
sg10
g11
sg12
S'25.9'
p1478
sa(dp1479
g2
g3
sg4
S'42.4'
p1480
sg6
g7
sg8
S'2015-07-20-06-13-53'
p1481
sg10
g11
sg12
S'25.9'
p1482
sa(dp1483
g2
g3
sg4
S'42.1'
p1484
sg6
g7
sg8
S'2015-07-20-06-14-57'
p1485
sg10
g11
sg12
S'25.8'
p1486
sa(dp1487
g2
g3
sg4
S'42.1'
p1488
sg6
g7
sg8
S'2015-07-20-06-15-57'
p1489
sg10
g11
sg12
S'25.8'
p1490
sa(dp1491
g2
g3
sg4
S'41.9'
p1492
sg6
g7
sg8
S'2015-07-20-06-16-58'
p1493
sg10
g11
sg12
S'25.8'
p1494
sa(dp1495
g2
g3
sg4
S'41.8'
p1496
sg6
g7
sg8
S'2015-07-20-06-17-58'
p1497
sg10
g11
sg12
S'25.7'
p1498
sa(dp1499
g2
g3
sg4
S'41.7'
p1500
sg6
g7
sg8
S'2015-07-20-06-18-59'
p1501
sg10
g11
sg12
S'25.7'
p1502
sa(dp1503
g2
g3
sg4
S'41.5'
p1504
sg6
g7
sg8
S'2015-07-20-06-19-59'
p1505
sg10
g11
sg12
S'25.7'
p1506
sa(dp1507
g2
g3
sg4
S'41.5'
p1508
sg6
g7
sg8
S'2015-07-20-06-21-00'
p1509
sg10
g11
sg12
S'25.7'
p1510
sa(dp1511
g2
g3
sg4
S'41.2'
p1512
sg6
g7
sg8
S'2015-07-20-06-22-03'
p1513
sg10
g11
sg12
S'25.6'
p1514
sa(dp1515
g2
g3
sg4
S'41.2'
p1516
sg6
g7
sg8
S'2015-07-20-06-23-04'
p1517
sg10
g11
sg12
S'25.6'
p1518
sa(dp1519
g2
g3
sg4
S'41.2'
p1520
sg6
g7
sg8
S'2015-07-20-06-24-04'
p1521
sg10
g11
sg12
S'25.6'
p1522
sa(dp1523
g2
g3
sg4
S'41.0'
p1524
sg6
g7
sg8
S'2015-07-20-06-25-05'
p1525
sg10
g11
sg12
S'25.6'
p1526
sa(dp1527
g2
g3
sg4
S'40.9'
p1528
sg6
g7
sg8
S'2015-07-20-06-26-05'
p1529
sg10
g11
sg12
S'25.6'
p1530
sa(dp1531
g2
g3
sg4
S'40.8'
p1532
sg6
g7
sg8
S'2015-07-20-06-27-06'
p1533
sg10
g11
sg12
S'25.5'
p1534
sa(dp1535
g2
g3
sg4
S'40.7'
p1536
sg6
g7
sg8
S'2015-07-20-06-28-07'
p1537
sg10
g11
sg12
S'25.5'
p1538
sa(dp1539
g2
g3
sg4
S'40.5'
p1540
sg6
g7
sg8
S'2015-07-20-06-29-07'
p1541
sg10
g11
sg12
S'25.5'
p1542
sa(dp1543
g2
g3
sg4
S'40.4'
p1544
sg6
g7
sg8
S'2015-07-20-06-30-08'
p1545
sg10
g11
sg12
S'25.5'
p1546
sa(dp1547
g2
g3
sg4
S'40.4'
p1548
sg6
g7
sg8
S'2015-07-20-06-31-08'
p1549
sg10
g11
sg12
S'25.4'
p1550
sa(dp1551
g2
g3
sg4
S'40.3'
p1552
sg6
g7
sg8
S'2015-07-20-06-32-09'
p1553
sg10
g11
sg12
S'25.4'
p1554
sa(dp1555
g2
g3
sg4
S'40.1'
p1556
sg6
g7
sg8
S'2015-07-20-06-33-12'
p1557
sg10
g11
sg12
S'25.4'
p1558
sa(dp1559
g2
g3
sg4
S'40.0'
p1560
sg6
g7
sg8
S'2015-07-20-06-34-17'
p1561
sg10
g11
sg12
S'25.3'
p1562
sa(dp1563
g2
g3
sg4
S'40.0'
p1564
sg6
g7
sg8
S'2015-07-20-06-35-18'
p1565
sg10
g11
sg12
S'25.3'
p1566
sa(dp1567
g2
g3
sg4
S'39.8'
p1568
sg6
g7
sg8
S'2015-07-20-06-36-21'
p1569
sg10
g11
sg12
S'25.3'
p1570
sa(dp1571
g2
g3
sg4
S'39.8'
p1572
sg6
g7
sg8
S'2015-07-20-06-37-22'
p1573
sg10
g11
sg12
S'25.3'
p1574
sa(dp1575
g2
g3
sg4
S'39.7'
p1576
sg6
g7
sg8
S'2015-07-20-06-38-25'
p1577
sg10
g11
sg12
S'25.3'
p1578
sa(dp1579
g2
g3
sg4
S'39.6'
p1580
sg6
g7
sg8
S'2015-07-20-06-39-25'
p1581
sg10
g11
sg12
S'25.3'
p1582
sa(dp1583
g2
g3
sg4
S'39.6'
p1584
sg6
g7
sg8
S'2015-07-20-06-40-26'
p1585
sg10
g11
sg12
S'25.3'
p1586
sa(dp1587
g2
g3
sg4
S'39.5'
p1588
sg6
g7
sg8
S'2015-07-20-06-41-26'
p1589
sg10
g11
sg12
S'25.3'
p1590
sa(dp1591
g2
g3
sg4
S'39.4'
p1592
sg6
g7
sg8
S'2015-07-20-06-42-27'
p1593
sg10
g11
sg12
S'25.3'
p1594
sa(dp1595
g2
g3
sg4
S'39.3'
p1596
sg6
g7
sg8
S'2015-07-20-06-43-28'
p1597
sg10
g11
sg12
S'25.3'
p1598
sa(dp1599
g2
g3
sg4
S'39.3'
p1600
sg6
g7
sg8
S'2015-07-20-06-44-28'
p1601
sg10
g11
sg12
S'25.3'
p1602
sa(dp1603
g2
g3
sg4
S'39.3'
p1604
sg6
g7
sg8
S'2015-07-20-06-45-29'
p1605
sg10
g11
sg12
S'25.3'
p1606
sa(dp1607
g2
g3
sg4
S'39.5'
p1608
sg6
g7
sg8
S'2015-07-20-06-46-29'
p1609
sg10
g11
sg12
S'25.2'
p1610
sa(dp1611
g2
g3
sg4
S'39.8'
p1612
sg6
g7
sg8
S'2015-07-20-06-47-30'
p1613
sg10
g11
sg12
S'25.3'
p1614
sa(dp1615
g2
g3
sg4
S'40.0'
p1616
sg6
g7
sg8
S'2015-07-20-06-48-30'
p1617
sg10
g11
sg12
S'25.3'
p1618
sa(dp1619
g2
g3
sg4
S'40.5'
p1620
sg6
g7
sg8
S'2015-07-20-06-49-34'
p1621
sg10
g11
sg12
S'25.4'
p1622
sa(dp1623
g2
g3
sg4
S'40.5'
p1624
sg6
g7
sg8
S'2015-07-20-06-50-34'
p1625
sg10
g11
sg12
S'25.3'
p1626
sa(dp1627
g2
g3
sg4
S'40.6'
p1628
sg6
g7
sg8
S'2015-07-20-06-51-35'
p1629
sg10
g11
sg12
S'25.4'
p1630
sa(dp1631
g2
g3
sg4
S'41.0'
p1632
sg6
g7
sg8
S'2015-07-20-06-52-38'
p1633
sg10
g11
sg12
S'25.5'
p1634
sa(dp1635
g2
g3
sg4
S'41.0'
p1636
sg6
g7
sg8
S'2015-07-20-06-53-38'
p1637
sg10
g11
sg12
S'25.5'
p1638
sa(dp1639
g2
g3
sg4
S'41.3'
p1640
sg6
g7
sg8
S'2015-07-20-06-54-39'
p1641
sg10
g11
sg12
S'25.6'
p1642
sa(dp1643
g2
g3
sg4
S'41.5'
p1644
sg6
g7
sg8
S'2015-07-20-06-55-39'
p1645
sg10
g11
sg12
S'25.6'
p1646
sa(dp1647
g2
g3
sg4
S'41.7'
p1648
sg6
g7
sg8
S'2015-07-20-06-56-40'
p1649
sg10
g11
sg12
S'25.6'
p1650
sa(dp1651
g2
g3
sg4
S'41.9'
p1652
sg6
g7
sg8
S'2015-07-20-06-57-41'
p1653
sg10
g11
sg12
S'25.6'
p1654
sa(dp1655
g2
g3
sg4
S'42.1'
p1656
sg6
g7
sg8
S'2015-07-20-06-58-41'
p1657
sg10
g11
sg12
S'25.7'
p1658
sa(dp1659
g2
g3
sg4
S'42.6'
p1660
sg6
g7
sg8
S'2015-07-20-06-59-47'
p1661
sg10
g11
sg12
S'25.8'
p1662
sa(dp1663
g2
g3
sg4
S'42.8'
p1664
sg6
g7
sg8
S'2015-07-20-07-00-50'
p1665
sg10
g11
sg12
S'25.8'
p1666
sa(dp1667
g2
g3
sg4
S'42.8'
p1668
sg6
g7
sg8
S'2015-07-20-07-01-50'
p1669
sg10
g11
sg12
S'25.8'
p1670
sa(dp1671
g2
g3
sg4
S'42.9'
p1672
sg6
g7
sg8
S'2015-07-20-07-02-51'
p1673
sg10
g11
sg12
S'25.8'
p1674
sa(dp1675
g2
g3
sg4
S'43.1'
p1676
sg6
g7
sg8
S'2015-07-20-07-03-52'
p1677
sg10
g11
sg12
S'25.9'
p1678
sa(dp1679
g2
g3
sg4
S'43.2'
p1680
sg6
g7
sg8
S'2015-07-20-07-04-52'
p1681
sg10
g11
sg12
S'25.9'
p1682
sa(dp1683
g2
g3
sg4
S'43.3'
p1684
sg6
g7
sg8
S'2015-07-20-07-05-53'
p1685
sg10
g11
sg12
S'25.9'
p1686
sa(dp1687
g2
g3
sg4
S'43.5'
p1688
sg6
g7
sg8
S'2015-07-20-07-06-53'
p1689
sg10
g11
sg12
S'25.9'
p1690
sa(dp1691
g2
g3
sg4
S'44.1'
p1692
sg6
g7
sg8
S'2015-07-20-07-07-56'
p1693
sg10
g11
sg12
S'26.0'
p1694
sa(dp1695
g2
g3
sg4
S'44.1'
p1696
sg6
g7
sg8
S'2015-07-20-07-08-57'
p1697
sg10
g11
sg12
S'26.0'
p1698
sa(dp1699
g2
g3
sg4
S'44.2'
p1700
sg6
g7
sg8
S'2015-07-20-07-09-58'
p1701
sg10
g11
sg12
S'26.1'
p1702
sa(dp1703
g2
g3
sg4
S'44.2'
p1704
sg6
g7
sg8
S'2015-07-20-07-10-58'
p1705
sg10
g11
sg12
S'26.1'
p1706
sa(dp1707
g2
g3
sg4
S'44.4'
p1708
sg6
g7
sg8
S'2015-07-20-07-11-59'
p1709
sg10
g11
sg12
S'26.1'
p1710
sa(dp1711
g2
g3
sg4
S'44.4'
p1712
sg6
g7
sg8
S'2015-07-20-07-12-59'
p1713
sg10
g11
sg12
S'26.2'
p1714
sa(dp1715
g2
g3
sg4
S'44.4'
p1716
sg6
g7
sg8
S'2015-07-20-07-14-00'
p1717
sg10
g11
sg12
S'26.2'
p1718
sa(dp1719
g2
g3
sg4
S'44.5'
p1720
sg6
g7
sg8
S'2015-07-20-07-15-00'
p1721
sg10
g11
sg12
S'26.2'
p1722
sa(dp1723
g2
g3
sg4
S'44.6'
p1724
sg6
g7
sg8
S'2015-07-20-07-16-04'
p1725
sg10
g11
sg12
S'26.2'
p1726
sa(dp1727
g2
g3
sg4
S'44.6'
p1728
sg6
g7
sg8
S'2015-07-20-07-17-04'
p1729
sg10
g11
sg12
S'26.2'
p1730
sa(dp1731
g2
g3
sg4
S'44.7'
p1732
sg6
g7
sg8
S'2015-07-20-07-18-10'
p1733
sg10
g11
sg12
S'26.3'
p1734
sa(dp1735
g2
g3
sg4
S'44.7'
p1736
sg6
g7
sg8
S'2015-07-20-07-19-10'
p1737
sg10
g11
sg12
S'26.3'
p1738
sa(dp1739
g2
g3
sg4
S'44.8'
p1740
sg6
g7
sg8
S'2015-07-20-07-20-11'
p1741
sg10
g11
sg12
S'26.3'
p1742
sa(dp1743
g2
g3
sg4
S'44.7'
p1744
sg6
g7
sg8
S'2015-07-20-07-21-11'
p1745
sg10
g11
sg12
S'26.4'
p1746
sa(dp1747
g2
g3
sg4
S'44.7'
p1748
sg6
g7
sg8
S'2015-07-20-07-22-12'
p1749
sg10
g11
sg12
S'26.4'
p1750
sa(dp1751
g2
g3
sg4
S'44.6'
p1752
sg6
g7
sg8
S'2015-07-20-07-23-13'
p1753
sg10
g11
sg12
S'26.3'
p1754
sa(dp1755
g2
g3
sg4
S'44.5'
p1756
sg6
g7
sg8
S'2015-07-20-07-24-13'
p1757
sg10
g11
sg12
S'26.3'
p1758
sa(dp1759
g2
g3
sg4
S'44.2'
p1760
sg6
g7
sg8
S'2015-07-20-07-25-16'
p1761
sg10
g11
sg12
S'26.2'
p1762
sa(dp1763
g2
g3
sg4
S'44.1'
p1764
sg6
g7
sg8
S'2015-07-20-07-26-19'
p1765
sg10
g11
sg12
S'26.2'
p1766
sa(dp1767
g2
g3
sg4
S'44.1'
p1768
sg6
g7
sg8
S'2015-07-20-07-27-20'
p1769
sg10
g11
sg12
S'26.2'
p1770
sa(dp1771
g2
g3
sg4
S'43.9'
p1772
sg6
g7
sg8
S'2015-07-20-07-28-20'
p1773
sg10
g11
sg12
S'26.1'
p1774
sa(dp1775
g2
g3
sg4
S'43.6'
p1776
sg6
g7
sg8
S'2015-07-20-07-29-24'
p1777
sg10
g11
sg12
S'26.0'
p1778
sa(dp1779
g2
g3
sg4
S'43.6'
p1780
sg6
g7
sg8
S'2015-07-20-07-30-24'
p1781
sg10
g11
sg12
S'26.0'
p1782
sa(dp1783
g2
g3
sg4
S'43.0'
p1784
sg6
g7
sg8
S'2015-07-20-07-31-25'
p1785
sg10
g11
sg12
S'25.9'
p1786
sa(dp1787
g2
g3
sg4
S'42.9'
p1788
sg6
g7
sg8
S'2015-07-20-07-32-25'
p1789
sg10
g11
sg12
S'25.9'
p1790
sa(dp1791
g2
g3
sg4
S'42.7'
p1792
sg6
g7
sg8
S'2015-07-20-07-33-26'
p1793
sg10
g11
sg12
S'25.9'
p1794
sa(dp1795
g2
g3
sg4
S'42.6'
p1796
sg6
g7
sg8
S'2015-07-20-07-34-26'
p1797
sg10
g11
sg12
S'25.8'
p1798
sa(dp1799
g2
g3
sg4
S'42.7'
p1800
sg6
g7
sg8
S'2015-07-20-07-35-27'
p1801
sg10
g11
sg12
S'25.8'
p1802
sa(dp1803
g2
g3
sg4
S'42.7'
p1804
sg6
g7
sg8
S'2015-07-20-07-36-30'
p1805
sg10
g11
sg12
S'25.8'
p1806
sa(dp1807
g2
g3
sg4
S'42.7'
p1808
sg6
g7
sg8
S'2015-07-20-07-37-31'
p1809
sg10
g11
sg12
S'25.8'
p1810
sa(dp1811
g2
g3
sg4
S'42.6'
p1812
sg6
g7
sg8
S'2015-07-20-07-38-31'
p1813
sg10
g11
sg12
S'25.9'
p1814
sa(dp1815
g2
g3
sg4
S'42.5'
p1816
sg6
g7
sg8
S'2015-07-20-07-39-32'
p1817
sg10
g11
sg12
S'25.9'
p1818
sa(dp1819
g2
g3
sg4
S'42.5'
p1820
sg6
g7
sg8
S'2015-07-20-07-40-32'
p1821
sg10
g11
sg12
S'25.9'
p1822
sa(dp1823
g2
g3
sg4
S'43.0'
p1824
sg6
g7
sg8
S'2015-07-20-07-41-33'
p1825
sg10
g11
sg12
S'26.0'
p1826
sa(dp1827
g2
g3
sg4
S'42.9'
p1828
sg6
g7
sg8
S'2015-07-20-07-42-36'
p1829
sg10
g11
sg12
S'26.1'
p1830
sa(dp1831
g2
g3
sg4
S'42.9'
p1832
sg6
g7
sg8
S'2015-07-20-07-43-36'
p1833
sg10
g11
sg12
S'26.0'
p1834
sa(dp1835
g2
g3
sg4
S'43.0'
p1836
sg6
g7
sg8
S'2015-07-20-07-44-40'
p1837
sg10
g11
sg12
S'26.1'
p1838
sa(dp1839
g2
g3
sg4
S'43.0'
p1840
sg6
g7
sg8
S'2015-07-20-07-45-40'
p1841
sg10
g11
sg12
S'26.1'
p1842
sa(dp1843
g2
g3
sg4
S'43.0'
p1844
sg6
g7
sg8
S'2015-07-20-07-46-41'
p1845
sg10
g11
sg12
S'26.1'
p1846
sa(dp1847
g2
g3
sg4
S'43.0'
p1848
sg6
g7
sg8
S'2015-07-20-07-47-41'
p1849
sg10
g11
sg12
S'26.2'
p1850
sa(dp1851
g2
g3
sg4
S'43.0'
p1852
sg6
g7
sg8
S'2015-07-20-07-48-44'
p1853
sg10
g11
sg12
S'26.2'
p1854
sa(dp1855
g2
g3
sg4
S'43.0'
p1856
sg6
g7
sg8
S'2015-07-20-07-49-45'
p1857
sg10
g11
sg12
S'26.2'
p1858
sa(dp1859
g2
g3
sg4
S'43.0'
p1860
sg6
g7
sg8
S'2015-07-20-07-50-48'
p1861
sg10
g11
sg12
S'26.3'
p1862
sa(dp1863
g2
g3
sg4
S'43.0'
p1864
sg6
g7
sg8
S'2015-07-20-07-51-49'
p1865
sg10
g11
sg12
S'26.2'
p1866
sa(dp1867
g2
g3
sg4
S'43.0'
p1868
sg6
g7
sg8
S'2015-07-20-07-52-49'
p1869
sg10
g11
sg12
S'26.3'
p1870
sa(dp1871
g2
g3
sg4
S'43.0'
p1872
sg6
g7
sg8
S'2015-07-20-07-53-50'
p1873
sg10
g11
sg12
S'26.3'
p1874
sa(dp1875
g2
g3
sg4
S'43.0'
p1876
sg6
g7
sg8
S'2015-07-20-07-54-50'
p1877
sg10
g11
sg12
S'26.3'
p1878
sa(dp1879
g2
g3
sg4
S'43.0'
p1880
sg6
g7
sg8
S'2015-07-20-07-55-51'
p1881
sg10
g11
sg12
S'26.3'
p1882
sa(dp1883
g2
g3
sg4
S'43.0'
p1884
sg6
g7
sg8
S'2015-07-20-07-56-52'
p1885
sg10
g11
sg12
S'26.4'
p1886
sa(dp1887
g2
g3
sg4
S'43.1'
p1888
sg6
g7
sg8
S'2015-07-20-07-57-52'
p1889
sg10
g11
sg12
S'26.4'
p1890
sa(dp1891
g2
g3
sg4
S'43.1'
p1892
sg6
g7
sg8
S'2015-07-20-07-58-53'
p1893
sg10
g11
sg12
S'26.5'
p1894
sa(dp1895
g2
g3
sg4
S'43.1'
p1896
sg6
g7
sg8
S'2015-07-20-07-59-53'
p1897
sg10
g11
sg12
S'26.5'
p1898
sa(dp1899
g2
g3
sg4
S'43.1'
p1900
sg6
g7
sg8
S'2015-07-20-08-00-54'
p1901
sg10
g11
sg12
S'26.5'
p1902
sa(dp1903
g2
g3
sg4
S'43.1'
p1904
sg6
g7
sg8
S'2015-07-20-08-01-54'
p1905
sg10
g11
sg12
S'26.5'
p1906
sa(dp1907
g2
g3
sg4
S'43.1'
p1908
sg6
g7
sg8
S'2015-07-20-08-02-57'
p1909
sg10
g11
sg12
S'26.5'
p1910
sa(dp1911
g2
g3
sg4
S'43.1'
p1912
sg6
g7
sg8
S'2015-07-20-08-03-58'
p1913
sg10
g11
sg12
S'26.5'
p1914
sa(dp1915
g2
g3
sg4
S'43.1'
p1916
sg6
g7
sg8
S'2015-07-20-08-04-59'
p1917
sg10
g11
sg12
S'26.6'
p1918
sa(dp1919
g2
g3
sg4
S'43.1'
p1920
sg6
g7
sg8
S'2015-07-20-08-05-59'
p1921
sg10
g11
sg12
S'26.5'
p1922
sa(dp1923
g2
g3
sg4
S'43.2'
p1924
sg6
g7
sg8
S'2015-07-20-08-07-00'
p1925
sg10
g11
sg12
S'26.6'
p1926
sa(dp1927
g2
g3
sg4
S'43.2'
p1928
sg6
g7
sg8
S'2015-07-20-08-08-00'
p1929
sg10
g11
sg12
S'26.6'
p1930
sa(dp1931
g2
g3
sg4
S'43.2'
p1932
sg6
g7
sg8
S'2015-07-20-08-09-01'
p1933
sg10
g11
sg12
S'26.6'
p1934
sa(dp1935
g2
g3
sg4
S'43.2'
p1936
sg6
g7
sg8
S'2015-07-20-08-10-01'
p1937
sg10
g11
sg12
S'26.6'
p1938
sa(dp1939
g2
g3
sg4
S'43.2'
p1940
sg6
g7
sg8
S'2015-07-20-08-11-02'
p1941
sg10
g11
sg12
S'26.7'
p1942
sa(dp1943
g2
g3
sg4
S'43.2'
p1944
sg6
g7
sg8
S'2015-07-20-08-12-03'
p1945
sg10
g11
sg12
S'26.6'
p1946
sa(dp1947
g2
g3
sg4
S'43.2'
p1948
sg6
g7
sg8
S'2015-07-20-08-13-03'
p1949
sg10
g11
sg12
S'26.7'
p1950
sa(dp1951
g2
g3
sg4
S'43.2'
p1952
sg6
g7
sg8
S'2015-07-20-08-14-04'
p1953
sg10
g11
sg12
S'26.7'
p1954
sa(dp1955
g2
g3
sg4
S'43.5'
p1956
sg6
g7
sg8
S'2015-07-20-08-15-04'
p1957
sg10
g11
sg12
S'26.7'
p1958
sa(dp1959
g2
g3
sg4
S'43.3'
p1960
sg6
g7
sg8
S'2015-07-20-08-16-05'
p1961
sg10
g11
sg12
S'26.7'
p1962
sa(dp1963
g2
g3
sg4
S'43.2'
p1964
sg6
g7
sg8
S'2015-07-20-08-17-05'
p1965
sg10
g11
sg12
S'26.7'
p1966
sa(dp1967
g2
g3
sg4
S'43.2'
p1968
sg6
g7
sg8
S'2015-07-20-08-18-06'
p1969
sg10
g11
sg12
S'26.8'
p1970
sa(dp1971
g2
g3
sg4
S'43.3'
p1972
sg6
g7
sg8
S'2015-07-20-08-19-06'
p1973
sg10
g11
sg12
S'26.8'
p1974
sa(dp1975
g2
g3
sg4
S'43.3'
p1976
sg6
g7
sg8
S'2015-07-20-08-20-07'
p1977
sg10
g11
sg12
S'26.8'
p1978
sa(dp1979
g2
g3
sg4
S'43.3'
p1980
sg6
g7
sg8
S'2015-07-20-08-21-08'
p1981
sg10
g11
sg12
S'26.8'
p1982
sa(dp1983
g2
g3
sg4
S'43.3'
p1984
sg6
g7
sg8
S'2015-07-20-08-22-08'
p1985
sg10
g11
sg12
S'26.8'
p1986
sa(dp1987
g2
g3
sg4
S'43.3'
p1988
sg6
g7
sg8
S'2015-07-20-08-23-09'
p1989
sg10
g11
sg12
S'26.8'
p1990
sa(dp1991
g2
g3
sg4
S'43.3'
p1992
sg6
g7
sg8
S'2015-07-20-08-24-09'
p1993
sg10
g11
sg12
S'26.8'
p1994
sa(dp1995
g2
g3
sg4
S'43.4'
p1996
sg6
g7
sg8
S'2015-07-20-08-25-10'
p1997
sg10
g11
sg12
S'26.8'
p1998
sa(dp1999
g2
g3
sg4
S'43.4'
p2000
sg6
g7
sg8
S'2015-07-20-08-26-11'
p2001
sg10
g11
sg12
S'26.8'
p2002
sa(dp2003
g2
g3
sg4
S'43.4'
p2004
sg6
g7
sg8
S'2015-07-20-08-27-11'
p2005
sg10
g11
sg12
S'26.9'
p2006
sa(dp2007
g2
g3
sg4
S'43.4'
p2008
sg6
g7
sg8
S'2015-07-20-08-28-12'
p2009
sg10
g11
sg12
S'26.8'
p2010
sa(dp2011
g2
g3
sg4
S'43.4'
p2012
sg6
g7
sg8
S'2015-07-20-08-29-17'
p2013
sg10
g11
sg12
S'26.9'
p2014
sa(dp2015
g2
g3
sg4
S'43.5'
p2016
sg6
g7
sg8
S'2015-07-20-08-30-18'
p2017
sg10
g11
sg12
S'26.9'
p2018
sa(dp2019
g2
g3
sg4
S'43.5'
p2020
sg6
g7
sg8
S'2015-07-20-08-31-18'
p2021
sg10
g11
sg12
S'26.9'
p2022
sa(dp2023
g2
g3
sg4
S'43.5'
p2024
sg6
g7
sg8
S'2015-07-20-08-32-21'
p2025
sg10
g11
sg12
S'26.9'
p2026
sa(dp2027
g2
g3
sg4
S'43.5'
p2028
sg6
g7
sg8
S'2015-07-20-08-33-22'
p2029
sg10
g11
sg12
S'26.9'
p2030
sa(dp2031
g2
g3
sg4
S'43.5'
p2032
sg6
g7
sg8
S'2015-07-20-08-34-23'
p2033
sg10
g11
sg12
S'26.9'
p2034
sa(dp2035
g2
g3
sg4
S'43.6'
p2036
sg6
g7
sg8
S'2015-07-20-08-35-28'
p2037
sg10
g11
sg12
S'26.9'
p2038
sa(dp2039
g2
g3
sg4
S'43.6'
p2040
sg6
g7
sg8
S'2015-07-20-08-36-29'
p2041
sg10
g11
sg12
S'26.9'
p2042
sa(dp2043
g2
g3
sg4
S'43.6'
p2044
sg6
g7
sg8
S'2015-07-20-08-37-29'
p2045
sg10
g11
sg12
S'26.9'
p2046
sa(dp2047
g2
g3
sg4
S'43.6'
p2048
sg6
g7
sg8
S'2015-07-20-08-38-30'
p2049
sg10
g11
sg12
S'26.9'
p2050
sa(dp2051
g2
g3
sg4
S'43.7'
p2052
sg6
g7
sg8
S'2015-07-20-08-39-31'
p2053
sg10
g11
sg12
S'26.9'
p2054
sa(dp2055
g2
g3
sg4
S'44.2'
p2056
sg6
g7
sg8
S'2015-07-20-08-40-31'
p2057
sg10
g11
sg12
S'27.0'
p2058
sa(dp2059
g2
g3
sg4
S'44.2'
p2060
sg6
g7
sg8
S'2015-07-20-08-41-32'
p2061
sg10
g11
sg12
S'27.0'
p2062
sa(dp2063
g2
g3
sg4
S'44.3'
p2064
sg6
g7
sg8
S'2015-07-20-08-42-32'
p2065
sg10
g11
sg12
S'27.0'
p2066
sa(dp2067
g2
g3
sg4
S'44.3'
p2068
sg6
g7
sg8
S'2015-07-20-08-43-33'
p2069
sg10
g11
sg12
S'27.0'
p2070
sa(dp2071
g2
g3
sg4
S'44.3'
p2072
sg6
g7
sg8
S'2015-07-20-08-44-33'
p2073
sg10
g11
sg12
S'27.0'
p2074
sa(dp2075
g2
g3
sg4
S'44.3'
p2076
sg6
g7
sg8
S'2015-07-20-08-45-34'
p2077
sg10
g11
sg12
S'27.0'
p2078
sa(dp2079
g2
g3
sg4
S'44.4'
p2080
sg6
g7
sg8
S'2015-07-20-08-46-34'
p2081
sg10
g11
sg12
S'27.0'
p2082
sa(dp2083
g2
g3
sg4
S'44.3'
p2084
sg6
g7
sg8
S'2015-07-20-08-47-35'
p2085
sg10
g11
sg12
S'27.0'
p2086
sa(dp2087
g2
g3
sg4
S'44.4'
p2088
sg6
g7
sg8
S'2015-07-20-08-48-38'
p2089
sg10
g11
sg12
S'27.1'
p2090
sa(dp2091
g2
g3
sg4
S'44.4'
p2092
sg6
g7
sg8
S'2015-07-20-08-49-41'
p2093
sg10
g11
sg12
S'27.1'
p2094
sa(dp2095
g2
g3
sg4
S'44.4'
p2096
sg6
g7
sg8
S'2015-07-20-08-50-42'
p2097
sg10
g11
sg12
S'27.1'
p2098
sa(dp2099
g2
g3
sg4
S'44.4'
p2100
sg6
g7
sg8
S'2015-07-20-08-51-42'
p2101
sg10
g11
sg12
S'27.0'
p2102
sa(dp2103
g2
g3
sg4
S'44.5'
p2104
sg6
g7
sg8
S'2015-07-20-08-52-43'
p2105
sg10
g11
sg12
S'27.1'
p2106
sa(dp2107
g2
g3
sg4
S'44.5'
p2108
sg6
g7
sg8
S'2015-07-20-08-53-44'
p2109
sg10
g11
sg12
S'27.1'
p2110
sa(dp2111
g2
g3
sg4
S'44.5'
p2112
sg6
g7
sg8
S'2015-07-20-08-54-44'
p2113
sg10
g11
sg12
S'27.1'
p2114
sa(dp2115
g2
g3
sg4
S'44.5'
p2116
sg6
g7
sg8
S'2015-07-20-08-55-45'
p2117
sg10
g11
sg12
S'27.1'
p2118
sa(dp2119
g2
g3
sg4
S'44.5'
p2120
sg6
g7
sg8
S'2015-07-20-08-56-45'
p2121
sg10
g11
sg12
S'27.1'
p2122
sa(dp2123
g2
g3
sg4
S'44.6'
p2124
sg6
g7
sg8
S'2015-07-20-08-57-51'
p2125
sg10
g11
sg12
S'27.1'
p2126
sa(dp2127
g2
g3
sg4
S'44.6'
p2128
sg6
g7
sg8
S'2015-07-20-08-58-51'
p2129
sg10
g11
sg12
S'27.1'
p2130
sa(dp2131
g2
g3
sg4
S'44.6'
p2132
sg6
g7
sg8
S'2015-07-20-09-00-00'
p2133
sg10
g11
sg12
S'27.1'
p2134
sa(dp2135
g2
g3
sg4
S'44.6'
p2136
sg6
g7
sg8
S'2015-07-20-09-01-00'
p2137
sg10
g11
sg12
S'27.1'
p2138
sa(dp2139
g2
g3
sg4
S'44.7'
p2140
sg6
g7
sg8
S'2015-07-20-09-02-01'
p2141
sg10
g11
sg12
S'27.2'
p2142
sa(dp2143
g2
g3
sg4
S'44.7'
p2144
sg6
g7
sg8
S'2015-07-20-09-03-01'
p2145
sg10
g11
sg12
S'27.2'
p2146
sa(dp2147
g2
g3
sg4
S'44.7'
p2148
sg6
g7
sg8
S'2015-07-20-09-04-02'
p2149
sg10
g11
sg12
S'27.2'
p2150
sa(dp2151
g2
g3
sg4
S'44.7'
p2152
sg6
g7
sg8
S'2015-07-20-09-05-02'
p2153
sg10
g11
sg12
S'27.2'
p2154
sa(dp2155
g2
g3
sg4
S'44.8'
p2156
sg6
g7
sg8
S'2015-07-20-09-06-03'
p2157
sg10
g11
sg12
S'27.2'
p2158
sa(dp2159
g2
g3
sg4
S'44.8'
p2160
sg6
g7
sg8
S'2015-07-20-09-07-04'
p2161
sg10
g11
sg12
S'27.2'
p2162
sa(dp2163
g2
g3
sg4
S'44.8'
p2164
sg6
g7
sg8
S'2015-07-20-09-08-04'
p2165
sg10
g11
sg12
S'27.2'
p2166
sa(dp2167
g2
g3
sg4
S'44.8'
p2168
sg6
g7
sg8
S'2015-07-20-09-09-05'
p2169
sg10
g11
sg12
S'27.2'
p2170
sa(dp2171
g2
g3
sg4
S'44.9'
p2172
sg6
g7
sg8
S'2015-07-20-09-10-13'
p2173
sg10
g11
sg12
S'27.2'
p2174
sa(dp2175
g2
g3
sg4
S'44.8'
p2176
sg6
g7
sg8
S'2015-07-20-09-11-13'
p2177
sg10
g11
sg12
S'27.2'
p2178
sa(dp2179
g2
g3
sg4
S'44.9'
p2180
sg6
g7
sg8
S'2015-07-20-09-12-14'
p2181
sg10
g11
sg12
S'27.2'
p2182
sa(dp2183
g2
g3
sg4
S'44.9'
p2184
sg6
g7
sg8
S'2015-07-20-09-13-15'
p2185
sg10
g11
sg12
S'27.2'
p2186
sa(dp2187
g2
g3
sg4
S'44.9'
p2188
sg6
g7
sg8
S'2015-07-20-09-14-18'
p2189
sg10
g11
sg12
S'27.2'
p2190
sa(dp2191
g2
g3
sg4
S'45.0'
p2192
sg6
g7
sg8
S'2015-07-20-09-15-21'
p2193
sg10
g11
sg12
S'27.2'
p2194
sa(dp2195
g2
g3
sg4
S'45.0'
p2196
sg6
g7
sg8
S'2015-07-20-09-16-21'
p2197
sg10
g11
sg12
S'27.2'
p2198
sa(dp2199
g2
g3
sg4
S'45.1'
p2200
sg6
g7
sg8
S'2015-07-20-09-17-22'
p2201
sg10
g11
sg12
S'27.3'
p2202
sa(dp2203
g2
g3
sg4
S'45.0'
p2204
sg6
g7
sg8
S'2015-07-20-09-18-22'
p2205
sg10
g11
sg12
S'27.2'
p2206
sa(dp2207
g2
g3
sg4
S'45.0'
p2208
sg6
g7
sg8
S'2015-07-20-09-19-23'
p2209
sg10
g11
sg12
S'27.2'
p2210
sa(dp2211
g2
g3
sg4
S'45.1'
p2212
sg6
g7
sg8
S'2015-07-20-09-20-24'
p2213
sg10
g11
sg12
S'27.2'
p2214
sa(dp2215
g2
g3
sg4
S'45.2'
p2216
sg6
g7
sg8
S'2015-07-20-09-21-24'
p2217
sg10
g11
sg12
S'27.3'
p2218
sa(dp2219
g2
g3
sg4
S'45.2'
p2220
sg6
g7
sg8
S'2015-07-20-09-22-25'
p2221
sg10
g11
sg12
S'27.3'
p2222
sa(dp2223
g2
g3
sg4
S'45.2'
p2224
sg6
g7
sg8
S'2015-07-20-09-23-25'
p2225
sg10
g11
sg12
S'27.2'
p2226
sa(dp2227
g2
g3
sg4
S'45.3'
p2228
sg6
g7
sg8
S'2015-07-20-09-24-28'
p2229
sg10
g11
sg12
S'27.3'
p2230
sa(dp2231
g2
g3
sg4
S'45.3'
p2232
sg6
g7
sg8
S'2015-07-20-09-25-29'
p2233
sg10
g11
sg12
S'27.3'
p2234
sa(dp2235
g2
g3
sg4
S'45.3'
p2236
sg6
g7
sg8
S'2015-07-20-09-26-29'
p2237
sg10
g11
sg12
S'27.3'
p2238
sa(dp2239
g2
g3
sg4
S'45.4'
p2240
sg6
g7
sg8
S'2015-07-20-09-27-30'
p2241
sg10
g11
sg12
S'27.3'
p2242
sa(dp2243
g2
g3
sg4
S'45.5'
p2244
sg6
g7
sg8
S'2015-07-20-09-28-33'
p2245
sg10
g11
sg12
S'27.3'
p2246
sa(dp2247
g2
g3
sg4
S'45.5'
p2248
sg6
g7
sg8
S'2015-07-20-09-29-34'
p2249
sg10
g11
sg12
S'27.3'
p2250
sa(dp2251
g2
g3
sg4
S'45.6'
p2252
sg6
g7
sg8
S'2015-07-20-09-30-34'
p2253
sg10
g11
sg12
S'27.3'
p2254
sa(dp2255
g2
g3
sg4
S'45.6'
p2256
sg6
g7
sg8
S'2015-07-20-09-31-35'
p2257
sg10
g11
sg12
S'27.3'
p2258
sa(dp2259
g2
g3
sg4
S'45.6'
p2260
sg6
g7
sg8
S'2015-07-20-09-32-35'
p2261
sg10
g11
sg12
S'27.3'
p2262
sa(dp2263
g2
g3
sg4
S'45.7'
p2264
sg6
g7
sg8
S'2015-07-20-09-33-36'
p2265
sg10
g11
sg12
S'27.3'
p2266
sa(dp2267
g2
g3
sg4
S'45.7'
p2268
sg6
g7
sg8
S'2015-07-20-09-34-37'
p2269
sg10
g11
sg12
S'27.3'
p2270
sa(dp2271
g2
g3
sg4
S'45.7'
p2272
sg6
g7
sg8
S'2015-07-20-09-35-37'
p2273
sg10
g11
sg12
S'27.3'
p2274
sa(dp2275
g2
g3
sg4
S'45.8'
p2276
sg6
g7
sg8
S'2015-07-20-09-36-38'
p2277
sg10
g11
sg12
S'27.3'
p2278
sa(dp2279
g2
g3
sg4
S'45.8'
p2280
sg6
g7
sg8
S'2015-07-20-09-37-38'
p2281
sg10
g11
sg12
S'27.3'
p2282
sa(dp2283
g2
g3
sg4
S'45.9'
p2284
sg6
g7
sg8
S'2015-07-20-09-38-39'
p2285
sg10
g11
sg12
S'27.4'
p2286
sa(dp2287
g2
g3
sg4
S'46.0'
p2288
sg6
g7
sg8
S'2015-07-20-09-39-39'
p2289
sg10
g11
sg12
S'27.4'
p2290
sa(dp2291
g2
g3
sg4
S'45.9'
p2292
sg6
g7
sg8
S'2015-07-20-09-40-40'
p2293
sg10
g11
sg12
S'27.4'
p2294
sa(dp2295
g2
g3
sg4
S'46.0'
p2296
sg6
g7
sg8
S'2015-07-20-09-41-40'
p2297
sg10
g11
sg12
S'27.4'
p2298
sa(dp2299
g2
g3
sg4
S'46.0'
p2300
sg6
g7
sg8
S'2015-07-20-09-42-41'
p2301
sg10
g11
sg12
S'27.4'
p2302
sa(dp2303
g2
g3
sg4
S'46.0'
p2304
sg6
g7
sg8
S'2015-07-20-09-43-42'
p2305
sg10
g11
sg12
S'27.4'
p2306
sa(dp2307
g2
g3
sg4
S'46.1'
p2308
sg6
g7
sg8
S'2015-07-20-09-44-42'
p2309
sg10
g11
sg12
S'27.4'
p2310
sa(dp2311
g2
g3
sg4
S'46.1'
p2312
sg6
g7
sg8
S'2015-07-20-09-45-43'
p2313
sg10
g11
sg12
S'27.4'
p2314
sa(dp2315
g2
g3
sg4
S'46.1'
p2316
sg6
g7
sg8
S'2015-07-20-09-46-43'
p2317
sg10
g11
sg12
S'27.4'
p2318
sa(dp2319
g2
g3
sg4
S'46.2'
p2320
sg6
g7
sg8
S'2015-07-20-09-47-44'
p2321
sg10
g11
sg12
S'27.4'
p2322
sa(dp2323
g2
g3
sg4
S'46.3'
p2324
sg6
g7
sg8
S'2015-07-20-09-48-44'
p2325
sg10
g11
sg12
S'27.4'
p2326
sa(dp2327
g2
g3
sg4
S'46.3'
p2328
sg6
g7
sg8
S'2015-07-20-09-49-45'
p2329
sg10
g11
sg12
S'27.4'
p2330
sa(dp2331
g2
g3
sg4
S'46.3'
p2332
sg6
g7
sg8
S'2015-07-20-09-50-46'
p2333
sg10
g11
sg12
S'27.4'
p2334
sa(dp2335
g2
g3
sg4
S'46.4'
p2336
sg6
g7
sg8
S'2015-07-20-09-51-46'
p2337
sg10
g11
sg12
S'27.4'
p2338
sa(dp2339
g2
g3
sg4
S'46.4'
p2340
sg6
g7
sg8
S'2015-07-20-09-52-47'
p2341
sg10
g11
sg12
S'27.4'
p2342
sa(dp2343
g2
g3
sg4
S'46.4'
p2344
sg6
g7
sg8
S'2015-07-20-09-53-47'
p2345
sg10
g11
sg12
S'27.4'
p2346
sa(dp2347
g2
g3
sg4
S'46.4'
p2348
sg6
g7
sg8
S'2015-07-20-09-54-50'
p2349
sg10
g11
sg12
S'27.4'
p2350
sa(dp2351
g2
g3
sg4
S'46.4'
p2352
sg6
g7
sg8
S'2015-07-20-09-55-51'
p2353
sg10
g11
sg12
S'27.4'
p2354
sa(dp2355
g2
g3
sg4
S'46.5'
p2356
sg6
g7
sg8
S'2015-07-20-09-56-52'
p2357
sg10
g11
sg12
S'27.4'
p2358
sa(dp2359
g2
g3
sg4
S'46.5'
p2360
sg6
g7
sg8
S'2015-07-20-09-57-52'
p2361
sg10
g11
sg12
S'27.4'
p2362
sa(dp2363
g2
g3
sg4
S'46.8'
p2364
sg6
g7
sg8
S'2015-07-20-09-58-55'
p2365
sg10
g11
sg12
S'27.5'
p2366
sa(dp2367
g2
g3
sg4
S'46.8'
p2368
sg6
g7
sg8
S'2015-07-20-09-59-56'
p2369
sg10
g11
sg12
S'27.5'
p2370
sa(dp2371
g2
g3
sg4
S'46.8'
p2372
sg6
g7
sg8
S'2015-07-20-10-00-56'
p2373
sg10
g11
sg12
S'27.5'
p2374
sa(dp2375
g2
g3
sg4
S'46.8'
p2376
sg6
g7
sg8
S'2015-07-20-10-01-57'
p2377
sg10
g11
sg12
S'27.5'
p2378
sa(dp2379
g2
g3
sg4
S'46.9'
p2380
sg6
g7
sg8
S'2015-07-20-10-02-58'
p2381
sg10
g11
sg12
S'27.5'
p2382
sa(dp2383
g2
g3
sg4
S'47.0'
p2384
sg6
g7
sg8
S'2015-07-20-10-03-58'
p2385
sg10
g11
sg12
S'27.5'
p2386
sa(dp2387
g2
g3
sg4
S'47.0'
p2388
sg6
g7
sg8
S'2015-07-20-10-04-59'
p2389
sg10
g11
sg12
S'27.5'
p2390
sa(dp2391
g2
g3
sg4
S'47.1'
p2392
sg6
g7
sg8
S'2015-07-20-10-06-02'
p2393
sg10
g11
sg12
S'27.5'
p2394
sa(dp2395
g2
g3
sg4
S'47.1'
p2396
sg6
g7
sg8
S'2015-07-20-10-07-02'
p2397
sg10
g11
sg12
S'27.5'
p2398
sa(dp2399
g2
g3
sg4
S'47.2'
p2400
sg6
g7
sg8
S'2015-07-20-10-08-03'
p2401
sg10
g11
sg12
S'27.5'
p2402
sa(dp2403
g2
g3
sg4
S'47.2'
p2404
sg6
g7
sg8
S'2015-07-20-10-09-04'
p2405
sg10
g11
sg12
S'27.5'
p2406
sa(dp2407
g2
g3
sg4
S'47.3'
p2408
sg6
g7
sg8
S'2015-07-20-10-10-04'
p2409
sg10
g11
sg12
S'27.5'
p2410
sa(dp2411
g2
g3
sg4
S'47.3'
p2412
sg6
g7
sg8
S'2015-07-20-10-11-05'
p2413
sg10
g11
sg12
S'27.5'
p2414
sa(dp2415
g2
g3
sg4
S'47.4'
p2416
sg6
g7
sg8
S'2015-07-20-10-12-05'
p2417
sg10
g11
sg12
S'27.5'
p2418
sa(dp2419
g2
g3
sg4
S'47.4'
p2420
sg6
g7
sg8
S'2015-07-20-10-13-06'
p2421
sg10
g11
sg12
S'27.6'
p2422
sa(dp2423
g2
g3
sg4
S'47.5'
p2424
sg6
g7
sg8
S'2015-07-20-10-14-06'
p2425
sg10
g11
sg12
S'27.6'
p2426
sa(dp2427
g2
g3
sg4
S'47.6'
p2428
sg6
g7
sg8
S'2015-07-20-10-15-07'
p2429
sg10
g11
sg12
S'27.6'
p2430
sa(dp2431
g2
g3
sg4
S'47.6'
p2432
sg6
g7
sg8
S'2015-07-20-10-16-10'
p2433
sg10
g11
sg12
S'27.6'
p2434
sa(dp2435
g2
g3
sg4
S'47.7'
p2436
sg6
g7
sg8
S'2015-07-20-10-17-11'
p2437
sg10
g11
sg12
S'27.6'
p2438
sa(dp2439
g2
g3
sg4
S'47.8'
p2440
sg6
g7
sg8
S'2015-07-20-10-18-11'
p2441
sg10
g11
sg12
S'27.6'
p2442
sa(dp2443
g2
g3
sg4
S'47.8'
p2444
sg6
g7
sg8
S'2015-07-20-10-19-12'
p2445
sg10
g11
sg12
S'27.6'
p2446
sa(dp2447
g2
g3
sg4
S'47.9'
p2448
sg6
g7
sg8
S'2015-07-20-10-20-12'
p2449
sg10
g11
sg12
S'27.6'
p2450
sa(dp2451
g2
g3
sg4
S'47.9'
p2452
sg6
g7
sg8
S'2015-07-20-10-21-13'
p2453
sg10
g11
sg12
S'27.6'
p2454
sa(dp2455
g2
g3
sg4
S'48.0'
p2456
sg6
g7
sg8
S'2015-07-20-10-22-13'
p2457
sg10
g11
sg12
S'27.6'
p2458
sa(dp2459
g2
g3
sg4
S'48.0'
p2460
sg6
g7
sg8
S'2015-07-20-10-23-14'
p2461
sg10
g11
sg12
S'27.6'
p2462
sa(dp2463
g2
g3
sg4
S'48.1'
p2464
sg6
g7
sg8
S'2015-07-20-10-24-15'
p2465
sg10
g11
sg12
S'27.6'
p2466
sa(dp2467
g2
g3
sg4
S'48.1'
p2468
sg6
g7
sg8
S'2015-07-20-10-25-15'
p2469
sg10
g11
sg12
S'27.6'
p2470
sa(dp2471
g2
g3
sg4
S'48.2'
p2472
sg6
g7
sg8
S'2015-07-20-10-26-16'
p2473
sg10
g11
sg12
S'27.6'
p2474
sa(dp2475
g2
g3
sg4
S'48.2'
p2476
sg6
g7
sg8
S'2015-07-20-10-27-16'
p2477
sg10
g11
sg12
S'27.6'
p2478
sa(dp2479
g2
g3
sg4
S'48.4'
p2480
sg6
g7
sg8
S'2015-07-20-10-28-24'
p2481
sg10
g11
sg12
S'27.6'
p2482
sa(dp2483
g2
g3
sg4
S'48.4'
p2484
sg6
g7
sg8
S'2015-07-20-10-29-25'
p2485
sg10
g11
sg12
S'27.6'
p2486
sa(dp2487
g2
g3
sg4
S'48.5'
p2488
sg6
g7
sg8
S'2015-07-20-10-30-26'
p2489
sg10
g11
sg12
S'27.7'
p2490
sa(dp2491
g2
g3
sg4
S'48.4'
p2492
sg6
g7
sg8
S'2015-07-20-10-31-26'
p2493
sg10
g11
sg12
S'27.7'
p2494
sa(dp2495
g2
g3
sg4
S'48.5'
p2496
sg6
g7
sg8
S'2015-07-20-10-32-29'
p2497
sg10
g1285
sg12
S'27.7'
p2498
sa(dp2499
g2
g3
sg4
S'48.6'
p2500
sg6
g7
sg8
S'2015-07-20-10-33-30'
p2501
sg10
g11
sg12
S'27.7'
p2502
sa(dp2503
g2
g3
sg4
S'48.6'
p2504
sg6
g7
sg8
S'2015-07-20-10-34-30'
p2505
sg10
g11
sg12
S'27.7'
p2506
sa(dp2507
g2
g3
sg4
S'48.7'
p2508
sg6
g7
sg8
S'2015-07-20-10-35-36'
p2509
sg10
g11
sg12
S'27.7'
p2510
sa(dp2511
g2
g3
sg4
S'48.8'
p2512
sg6
g7
sg8
S'2015-07-20-10-36-42'
p2513
sg10
g11
sg12
S'27.7'
p2514
sa(dp2515
g2
g3
sg4
S'48.8'
p2516
sg6
g7
sg8
S'2015-07-20-10-37-42'
p2517
sg10
g11
sg12
S'27.7'
p2518
sa(dp2519
g2
g3
sg4
S'48.9'
p2520
sg6
g7
sg8
S'2015-07-20-10-38-45'
p2521
sg10
g11
sg12
S'27.7'
p2522
sa(dp2523
g2
g3
sg4
S'48.9'
p2524
sg6
g7
sg8
S'2015-07-20-10-39-46'
p2525
sg10
g11
sg12
S'27.7'
p2526
sa(dp2527
g2
g3
sg4
S'48.9'
p2528
sg6
g7
sg8
S'2015-07-20-10-40-46'
p2529
sg10
g11
sg12
S'27.7'
p2530
sa(dp2531
g2
g3
sg4
S'49.0'
p2532
sg6
g7
sg8
S'2015-07-20-10-41-47'
p2533
sg10
g11
sg12
S'27.7'
p2534
sa(dp2535
g2
g3
sg4
S'49.0'
p2536
sg6
g7
sg8
S'2015-07-20-10-42-48'
p2537
sg10
g11
sg12
S'27.7'
p2538
sa(dp2539
g2
g3
sg4
S'48.9'
p2540
sg6
g7
sg8
S'2015-07-20-10-43-48'
p2541
sg10
g11
sg12
S'27.7'
p2542
sa(dp2543
g2
g3
sg4
S'49.0'
p2544
sg6
g7
sg8
S'2015-07-20-10-44-49'
p2545
sg10
g11
sg12
S'27.7'
p2546
sa(dp2547
g2
g3
sg4
S'49.0'
p2548
sg6
g7
sg8
S'2015-07-20-10-45-49'
p2549
sg10
g11
sg12
S'27.7'
p2550
sa(dp2551
g2
g3
sg4
S'49.1'
p2552
sg6
g7
sg8
S'2015-07-20-10-46-50'
p2553
sg10
g11
sg12
S'27.7'
p2554
sa(dp2555
g2
g3
sg4
S'49.0'
p2556
sg6
g7
sg8
S'2015-07-20-10-47-50'
p2557
sg10
g11
sg12
S'27.7'
p2558
sa(dp2559
g2
g3
sg4
S'49.1'
p2560
sg6
g7
sg8
S'2015-07-20-10-48-53'
p2561
sg10
g11
sg12
S'27.7'
p2562
sa(dp2563
g2
g3
sg4
S'49.1'
p2564
sg6
g7
sg8
S'2015-07-20-10-49-54'
p2565
sg10
g11
sg12
S'27.7'
p2566
sa(dp2567
g2
g3
sg4
S'49.2'
p2568
sg6
g7
sg8
S'2015-07-20-10-50-55'
p2569
sg10
g11
sg12
S'27.7'
p2570
sa(dp2571
g2
g3
sg4
S'49.1'
p2572
sg6
g7
sg8
S'2015-07-20-10-51-55'
p2573
sg10
g11
sg12
S'27.7'
p2574
sa(dp2575
g2
g3
sg4
S'49.2'
p2576
sg6
g7
sg8
S'2015-07-20-10-52-56'
p2577
sg10
g11
sg12
S'27.7'
p2578
sa(dp2579
g2
g3
sg4
S'49.2'
p2580
sg6
g7
sg8
S'2015-07-20-10-53-56'
p2581
sg10
g11
sg12
S'27.7'
p2582
sa(dp2583
g2
g3
sg4
S'49.3'
p2584
sg6
g7
sg8
S'2015-07-20-10-54-59'
p2585
sg10
g11
sg12
S'27.7'
p2586
sa(dp2587
g2
g3
sg4
S'49.3'
p2588
sg6
g7
sg8
S'2015-07-20-10-56-00'
p2589
sg10
g11
sg12
S'27.7'
p2590
sa(dp2591
g2
g3
sg4
S'49.3'
p2592
sg6
g7
sg8
S'2015-07-20-10-57-01'
p2593
sg10
g11
sg12
S'27.7'
p2594
sa(dp2595
g2
g3
sg4
S'49.3'
p2596
sg6
g7
sg8
S'2015-07-20-10-58-04'
p2597
sg10
g11
sg12
S'27.7'
p2598
sa(dp2599
g2
g3
sg4
S'49.3'
p2600
sg6
g7
sg8
S'2015-07-20-10-59-04'
p2601
sg10
g11
sg12
S'27.7'
p2602
sa(dp2603
g2
g3
sg4
S'49.4'
p2604
sg6
g7
sg8
S'2015-07-20-11-00-05'
p2605
sg10
g11
sg12
S'27.7'
p2606
sa(dp2607
g2
g3
sg4
S'49.4'
p2608
sg6
g7
sg8
S'2015-07-20-11-01-10'
p2609
sg10
g11
sg12
S'27.7'
p2610
sa(dp2611
g2
g3
sg4
S'49.4'
p2612
sg6
g7
sg8
S'2015-07-20-11-02-11'
p2613
sg10
g11
sg12
S'27.7'
p2614
sa(dp2615
g2
g3
sg4
S'49.4'
p2616
sg6
g7
sg8
S'2015-07-20-11-03-12'
p2617
sg10
g11
sg12
S'27.7'
p2618
sa(dp2619
g2
g3
sg4
S'49.4'
p2620
sg6
g7
sg8
S'2015-07-20-11-04-12'
p2621
sg10
g11
sg12
S'27.7'
p2622
sa(dp2623
g2
g3
sg4
S'49.5'
p2624
sg6
g7
sg8
S'2015-07-20-11-05-13'
p2625
sg10
g11
sg12
S'27.8'
p2626
sa(dp2627
g2
g3
sg4
S'49.6'
p2628
sg6
g7
sg8
S'2015-07-20-11-06-16'
p2629
sg10
g11
sg12
S'27.8'
p2630
sa(dp2631
g2
g3
sg4
S'49.5'
p2632
sg6
g7
sg8
S'2015-07-20-11-07-16'
p2633
sg10
g11
sg12
S'27.8'
p2634
sa(dp2635
g2
g3
sg4
S'49.5'
p2636
sg6
g7
sg8
S'2015-07-20-11-08-17'
p2637
sg10
g11
sg12
S'27.8'
p2638
sa(dp2639
g2
g3
sg4
S'49.6'
p2640
sg6
g7
sg8
S'2015-07-20-11-09-18'
p2641
sg10
g11
sg12
S'27.8'
p2642
sa(dp2643
g2
g3
sg4
S'49.6'
p2644
sg6
g7
sg8
S'2015-07-20-11-10-18'
p2645
sg10
g11
sg12
S'27.8'
p2646
sa(dp2647
g2
g3
sg4
S'49.6'
p2648
sg6
g7
sg8
S'2015-07-20-11-11-19'
p2649
sg10
g11
sg12
S'27.7'
p2650
sa(dp2651
g2
g3
sg4
S'49.7'
p2652
sg6
g7
sg8
S'2015-07-20-11-12-19'
p2653
sg10
g11
sg12
S'27.8'
p2654
sa(dp2655
g2
g3
sg4
S'49.7'
p2656
sg6
g7
sg8
S'2015-07-20-11-13-20'
p2657
sg10
g11
sg12
S'27.8'
p2658
sa(dp2659
g2
g3
sg4
S'49.7'
p2660
sg6
g7
sg8
S'2015-07-20-11-14-20'
p2661
sg10
g11
sg12
S'27.8'
p2662
sa(dp2663
g2
g3
sg4
S'49.7'
p2664
sg6
g7
sg8
S'2015-07-20-11-15-21'
p2665
sg10
g11
sg12
S'27.8'
p2666
sa(dp2667
g2
g3
sg4
S'49.7'
p2668
sg6
g7
sg8
S'2015-07-20-11-16-22'
p2669
sg10
g11
sg12
S'27.8'
p2670
sa(dp2671
g2
g3
sg4
S'49.7'
p2672
sg6
g7
sg8
S'2015-07-20-11-17-22'
p2673
sg10
g11
sg12
S'27.8'
p2674
sa(dp2675
g2
g3
sg4
S'49.7'
p2676
sg6
g7
sg8
S'2015-07-20-11-18-23'
p2677
sg10
g11
sg12
S'27.8'
p2678
sa(dp2679
g2
g3
sg4
S'49.7'
p2680
sg6
g7
sg8
S'2015-07-20-11-19-23'
p2681
sg10
g11
sg12
S'27.8'
p2682
sa(dp2683
g2
g3
sg4
S'49.7'
p2684
sg6
g7
sg8
S'2015-07-20-11-20-26'
p2685
sg10
g11
sg12
S'27.8'
p2686
sa(dp2687
g2
g3
sg4
S'49.7'
p2688
sg6
g7
sg8
S'2015-07-20-11-21-27'
p2689
sg10
g11
sg12
S'27.8'
p2690
sa(dp2691
g2
g3
sg4
S'49.7'
p2692
sg6
g7
sg8
S'2015-07-20-11-22-27'
p2693
sg10
g11
sg12
S'27.8'
p2694
sa(dp2695
g2
g3
sg4
S'49.8'
p2696
sg6
g7
sg8
S'2015-07-20-11-23-28'
p2697
sg10
g11
sg12
S'27.8'
p2698
sa(dp2699
g2
g3
sg4
S'49.8'
p2700
sg6
g7
sg8
S'2015-07-20-11-24-29'
p2701
sg10
g11
sg12
S'27.8'
p2702
sa(dp2703
g2
g3
sg4
S'49.8'
p2704
sg6
g7
sg8
S'2015-07-20-11-25-29'
p2705
sg10
g11
sg12
S'27.8'
p2706
sa(dp2707
g2
g3
sg4
S'49.8'
p2708
sg6
g7
sg8
S'2015-07-20-11-26-30'
p2709
sg10
g11
sg12
S'27.8'
p2710
sa(dp2711
g2
g3
sg4
S'49.9'
p2712
sg6
g7
sg8
S'2015-07-20-11-27-33'
p2713
sg10
g11
sg12
S'27.8'
p2714
sa(dp2715
g2
g3
sg4
S'49.9'
p2716
sg6
g7
sg8
S'2015-07-20-11-28-33'
p2717
sg10
g11
sg12
S'27.8'
p2718
sa(dp2719
g2
g3
sg4
S'49.9'
p2720
sg6
g7
sg8
S'2015-07-20-11-29-34'
p2721
sg10
g11
sg12
S'27.8'
p2722
sa(dp2723
g2
g3
sg4
S'50.0'
p2724
sg6
g7
sg8
S'2015-07-20-11-30-35'
p2725
sg10
g11
sg12
S'27.9'
p2726
sa(dp2727
g2
g3
sg4
S'50.0'
p2728
sg6
g7
sg8
S'2015-07-20-11-31-35'
p2729
sg10
g11
sg12
S'27.9'
p2730
sa(dp2731
g2
g3
sg4
S'50.1'
p2732
sg6
g7
sg8
S'2015-07-20-11-32-36'
p2733
sg10
g11
sg12
S'27.8'
p2734
sa(dp2735
g2
g3
sg4
S'50.3'
p2736
sg6
g7
sg8
S'2015-07-20-11-33-36'
p2737
sg10
g11
sg12
S'27.9'
p2738
sa(dp2739
g2
g3
sg4
S'50.3'
p2740
sg6
g7
sg8
S'2015-07-20-11-34-37'
p2741
sg10
g11
sg12
S'27.9'
p2742
sa(dp2743
g2
g3
sg4
S'50.4'
p2744
sg6
g7
sg8
S'2015-07-20-11-35-37'
p2745
sg10
g11
sg12
S'27.9'
p2746
sa(dp2747
g2
g3
sg4
S'50.4'
p2748
sg6
g7
sg8
S'2015-07-20-11-36-38'
p2749
sg10
g11
sg12
S'27.9'
p2750
sa(dp2751
g2
g3
sg4
S'50.5'
p2752
sg6
g7
sg8
S'2015-07-20-11-37-39'
p2753
sg10
g11
sg12
S'27.9'
p2754
sa(dp2755
g2
g3
sg4
S'50.6'
p2756
sg6
g7
sg8
S'2015-07-20-11-38-39'
p2757
sg10
g11
sg12
S'27.9'
p2758
sa(dp2759
g2
g3
sg4
S'50.6'
p2760
sg6
g7
sg8
S'2015-07-20-11-39-40'
p2761
sg10
g11
sg12
S'27.9'
p2762
sa(dp2763
g2
g3
sg4
S'51.1'
p2764
sg6
g7
sg8
S'2015-07-20-11-40-40'
p2765
sg10
g11
sg12
S'28.0'
p2766
sa(dp2767
g2
g3
sg4
S'51.1'
p2768
sg6
g7
sg8
S'2015-07-20-11-41-41'
p2769
sg10
g11
sg12
S'28.0'
p2770
sa(dp2771
g2
g3
sg4
S'51.2'
p2772
sg6
g7
sg8
S'2015-07-20-11-42-41'
p2773
sg10
g11
sg12
S'28.0'
p2774
sa(dp2775
g2
g3
sg4
S'51.3'
p2776
sg6
g7
sg8
S'2015-07-20-11-43-42'
p2777
sg10
g11
sg12
S'28.0'
p2778
sa(dp2779
g2
g3
sg4
S'51.3'
p2780
sg6
g7
sg8
S'2015-07-20-11-44-43'
p2781
sg10
g11
sg12
S'28.0'
p2782
sa(dp2783
g2
g3
sg4
S'51.3'
p2784
sg6
g7
sg8
S'2015-07-20-11-45-43'
p2785
sg10
g11
sg12
S'28.0'
p2786
sa(dp2787
g2
g3
sg4
S'51.3'
p2788
sg6
g7
sg8
S'2015-07-20-11-46-44'
p2789
sg10
g1285
sg12
S'28.0'
p2790
sa(dp2791
g2
g3
sg4
S'51.5'
p2792
sg6
g7
sg8
S'2015-07-20-11-47-47'
p2793
sg10
g11
sg12
S'28.1'
p2794
sa(dp2795
g2
g3
sg4
S'51.5'
p2796
sg6
g7
sg8
S'2015-07-20-11-48-47'
p2797
sg10
g11
sg12
S'28.1'
p2798
sa(dp2799
g2
g3
sg4
S'51.8'
p2800
sg6
g7
sg8
S'2015-07-20-11-49-48'
p2801
sg10
g11
sg12
S'28.1'
p2802
sa(dp2803
g2
g3
sg4
S'52.0'
p2804
sg6
g7
sg8
S'2015-07-20-11-50-48'
p2805
sg10
g11
sg12
S'28.1'
p2806
sa(dp2807
g2
g3
sg4
S'52.0'
p2808
sg6
g7
sg8
S'2015-07-20-11-51-49'
p2809
sg10
g11
sg12
S'28.1'
p2810
sa(dp2811
g2
g3
sg4
S'52.0'
p2812
sg6
g7
sg8
S'2015-07-20-11-52-50'
p2813
sg10
g11
sg12
S'28.2'
p2814
sa(dp2815
g2
g3
sg4
S'51.9'
p2816
sg6
g7
sg8
S'2015-07-20-11-53-50'
p2817
sg10
g11
sg12
S'28.2'
p2818
sa(dp2819
g2
g3
sg4
S'52.1'
p2820
sg6
g7
sg8
S'2015-07-20-11-54-53'
p2821
sg10
g11
sg12
S'28.2'
p2822
sa(dp2823
g2
g3
sg4
S'52.1'
p2824
sg6
g7
sg8
S'2015-07-20-11-55-54'
p2825
sg10
g11
sg12
S'28.2'
p2826
sa(dp2827
g2
g3
sg4
S'52.2'
p2828
sg6
g7
sg8
S'2015-07-20-11-56-54'
p2829
sg10
g11
sg12
S'28.2'
p2830
sa(dp2831
g2
g3
sg4
S'52.2'
p2832
sg6
g7
sg8
S'2015-07-20-11-57-58'
p2833
sg10
g11
sg12
S'28.2'
p2834
sa(dp2835
g2
g3
sg4
S'52.2'
p2836
sg6
g7
sg8
S'2015-07-20-11-58-58'
p2837
sg10
g11
sg12
S'28.2'
p2838
sa(dp2839
g2
g3
sg4
S'52.1'
p2840
sg6
g7
sg8
S'2015-07-20-11-59-59'
p2841
sg10
g11
sg12
S'28.2'
p2842
sa(dp2843
g2
g3
sg4
S'52.1'
p2844
sg6
g7
sg8
S'2015-07-20-12-00-59'
p2845
sg10
g11
sg12
S'28.3'
p2846
sa(dp2847
g2
g3
sg4
S'52.2'
p2848
sg6
g7
sg8
S'2015-07-20-12-02-00'
p2849
sg10
g11
sg12
S'28.2'
p2850
sa(dp2851
g2
g3
sg4
S'52.1'
p2852
sg6
g7
sg8
S'2015-07-20-12-03-00'
p2853
sg10
g11
sg12
S'28.3'
p2854
sa(dp2855
g2
g3
sg4
S'52.2'
p2856
sg6
g7
sg8
S'2015-07-20-12-04-01'
p2857
sg10
g11
sg12
S'28.2'
p2858
sa(dp2859
g2
g3
sg4
S'52.4'
p2860
sg6
g7
sg8
S'2015-07-20-12-05-02'
p2861
sg10
g11
sg12
S'28.3'
p2862
sa(dp2863
g2
g3
sg4
S'52.5'
p2864
sg6
g7
sg8
S'2015-07-20-12-06-02'
p2865
sg10
g11
sg12
S'28.3'
p2866
sa(dp2867
g2
g3
sg4
S'52.4'
p2868
sg6
g7
sg8
S'2015-07-20-12-07-03'
p2869
sg10
g11
sg12
S'28.3'
p2870
sa(dp2871
g2
g3
sg4
S'52.8'
p2872
sg6
g7
sg8
S'2015-07-20-12-08-03'
p2873
sg10
g11
sg12
S'28.4'
p2874
sa(dp2875
g2
g3
sg4
S'52.9'
p2876
sg6
g7
sg8
S'2015-07-20-12-09-04'
p2877
sg10
g11
sg12
S'28.4'
p2878
sa(dp2879
g2
g3
sg4
S'53.0'
p2880
sg6
g7
sg8
S'2015-07-20-12-10-04'
p2881
sg10
g11
sg12
S'28.4'
p2882
sa(dp2883
g2
g3
sg4
S'53.2'
p2884
sg6
g7
sg8
S'2015-07-20-12-11-05'
p2885
sg10
g11
sg12
S'28.4'
p2886
sa(dp2887
g2
g3
sg4
S'53.1'
p2888
sg6
g7
sg8
S'2015-07-20-12-12-06'
p2889
sg10
g11
sg12
S'28.4'
p2890
sa(dp2891
g2
g3
sg4
S'53.0'
p2892
sg6
g7
sg8
S'2015-07-20-12-13-06'
p2893
sg10
g11
sg12
S'28.3'
p2894
sa(dp2895
g2
g3
sg4
S'52.8'
p2896
sg6
g7
sg8
S'2015-07-20-12-14-07'
p2897
sg10
g11
sg12
S'28.2'
p2898
sa(dp2899
g2
g3
sg4
S'52.5'
p2900
sg6
g7
sg8
S'2015-07-20-12-15-07'
p2901
sg10
g11
sg12
S'28.1'
p2902
sa(dp2903
g2
g3
sg4
S'52.3'
p2904
sg6
g7
sg8
S'2015-07-20-12-16-08'
p2905
sg10
g11
sg12
S'28.1'
p2906
sa(dp2907
g2
g3
sg4
S'52.1'
p2908
sg6
g7
sg8
S'2015-07-20-12-17-08'
p2909
sg10
g11
sg12
S'28.0'
p2910
sa(dp2911
g2
g3
sg4
S'51.3'
p2912
sg6
g7
sg8
S'2015-07-20-12-18-09'
p2913
sg10
g11
sg12
S'27.9'
p2914
sa(dp2915
g2
g3
sg4
S'51.2'
p2916
sg6
g7
sg8
S'2015-07-20-12-19-10'
p2917
sg10
g11
sg12
S'27.8'
p2918
sa(dp2919
g2
g3
sg4
S'51.0'
p2920
sg6
g7
sg8
S'2015-07-20-12-20-10'
p2921
sg10
g11
sg12
S'27.6'
p2922
sa(dp2923
g2
g3
sg4
S'51.1'
p2924
sg6
g7
sg8
S'2015-07-20-12-21-11'
p2925
sg10
g1285
sg12
S'27.5'
p2926
sa(dp2927
g2
g3
sg4
S'50.9'
p2928
sg6
g7
sg8
S'2015-07-20-12-22-11'
p2929
sg10
g11
sg12
S'27.5'
p2930
sa(dp2931
g2
g3
sg4
S'50.7'
p2932
sg6
g7
sg8
S'2015-07-20-12-23-12'
p2933
sg10
g11
sg12
S'27.4'
p2934
sa(dp2935
g2
g3
sg4
S'50.5'
p2936
sg6
g7
sg8
S'2015-07-20-12-24-12'
p2937
sg10
g11
sg12
S'27.3'
p2938
sa(dp2939
g2
g3
sg4
S'50.3'
p2940
sg6
g7
sg8
S'2015-07-20-12-25-13'
p2941
sg10
g11
sg12
S'27.3'
p2942
sa(dp2943
g2
g3
sg4
S'50.1'
p2944
sg6
g7
sg8
S'2015-07-20-12-26-14'
p2945
sg10
g11
sg12
S'27.2'
p2946
sa(dp2947
g2
g3
sg4
S'50.0'
p2948
sg6
g7
sg8
S'2015-07-20-12-27-14'
p2949
sg10
g11
sg12
S'27.2'
p2950
sa(dp2951
g2
g3
sg4
S'49.8'
p2952
sg6
g7
sg8
S'2015-07-20-12-28-15'
p2953
sg10
g11
sg12
S'27.1'
p2954
sa(dp2955
g2
g3
sg4
S'49.7'
p2956
sg6
g7
sg8
S'2015-07-20-12-29-15'
p2957
sg10
g11
sg12
S'27.0'
p2958
sa(dp2959
g2
g3
sg4
S'49.1'
p2960
sg6
g7
sg8
S'2015-07-20-12-30-16'
p2961
sg10
g11
sg12
S'26.9'
p2962
sa(dp2963
g2
g3
sg4
S'48.9'
p2964
sg6
g7
sg8
S'2015-07-20-12-31-19'
p2965
sg10
g11
sg12
S'26.9'
p2966
sa(dp2967
g2
g3
sg4
S'48.9'
p2968
sg6
g7
sg8
S'2015-07-20-12-32-19'
p2969
sg10
g11
sg12
S'26.9'
p2970
sa(dp2971
g2
g3
sg4
S'48.6'
p2972
sg6
g7
sg8
S'2015-07-20-12-33-20'
p2973
sg10
g11
sg12
S'26.9'
p2974
sa(dp2975
g2
g3
sg4
S'48.5'
p2976
sg6
g7
sg8
S'2015-07-20-12-34-21'
p2977
sg10
g11
sg12
S'26.9'
p2978
sa(dp2979
g2
g3
sg4
S'48.3'
p2980
sg6
g7
sg8
S'2015-07-20-12-35-21'
p2981
sg10
g11
sg12
S'26.8'
p2982
sa(dp2983
g2
g3
sg4
S'48.3'
p2984
sg6
g7
sg8
S'2015-07-20-12-36-22'
p2985
sg10
g11
sg12
S'26.8'
p2986
sa(dp2987
g2
g3
sg4
S'48.2'
p2988
sg6
g7
sg8
S'2015-07-20-12-37-22'
p2989
sg10
g11
sg12
S'26.8'
p2990
sa(dp2991
g2
g3
sg4
S'48.0'
p2992
sg6
g7
sg8
S'2015-07-20-12-38-23'
p2993
sg10
g11
sg12
S'26.8'
p2994
sa(dp2995
g2
g3
sg4
S'47.9'
p2996
sg6
g7
sg8
S'2015-07-20-12-39-23'
p2997
sg10
g11
sg12
S'26.8'
p2998
sa(dp2999
g2
g3
sg4
S'47.6'
p3000
sg6
g7
sg8
S'2015-07-20-12-40-27'
p3001
sg10
g11
sg12
S'26.8'
p3002
sa(dp3003
g2
g3
sg4
S'47.6'
p3004
sg6
g7
sg8
S'2015-07-20-12-41-27'
p3005
sg10
g11
sg12
S'26.7'
p3006
sa(dp3007
g2
g3
sg4
S'47.5'
p3008
sg6
g7
sg8
S'2015-07-20-12-42-28'
p3009
sg10
g11
sg12
S'26.8'
p3010
sa(dp3011
g2
g3
sg4
S'47.3'
p3012
sg6
g7
sg8
S'2015-07-20-12-43-28'
p3013
sg10
g11
sg12
S'26.7'
p3014
sa(dp3015
g2
g3
sg4
S'47.4'
p3016
sg6
g7
sg8
S'2015-07-20-12-44-29'
p3017
sg10
g11
sg12
S'26.7'
p3018
sa(dp3019
g2
g3
sg4
S'47.2'
p3020
sg6
g7
sg8
S'2015-07-20-12-45-29'
p3021
sg10
g11
sg12
S'26.7'
p3022
sa(dp3023
g2
g3
sg4
S'47.1'
p3024
sg6
g7
sg8
S'2015-07-20-12-46-35'
p3025
sg10
g11
sg12
S'26.7'
p3026
sa(dp3027
g2
g3
sg4
S'47.1'
p3028
sg6
g7
sg8
S'2015-07-20-12-47-36'
p3029
sg10
g11
sg12
S'26.6'
p3030
sa(dp3031
g2
g3
sg4
S'46.7'
p3032
sg6
g7
sg8
S'2015-07-20-12-48-39'
p3033
sg10
g11
sg12
S'26.6'
p3034
sa(dp3035
g2
g3
sg4
S'46.7'
p3036
sg6
g7
sg8
S'2015-07-20-12-49-39'
p3037
sg10
g11
sg12
S'26.6'
p3038
sa(dp3039
g2
g3
sg4
S'46.8'
p3040
sg6
g7
sg8
S'2015-07-20-12-50-40'
p3041
sg10
g11
sg12
S'26.6'
p3042
sa(dp3043
g2
g3
sg4
S'46.8'
p3044
sg6
g7
sg8
S'2015-07-20-12-51-40'
p3045
sg10
g11
sg12
S'26.6'
p3046
sa(dp3047
g2
g3
sg4
S'46.6'
p3048
sg6
g7
sg8
S'2015-07-20-12-52-41'
p3049
sg10
g11
sg12
S'26.5'
p3050
sa(dp3051
g2
g3
sg4
S'46.5'
p3052
sg6
g7
sg8
S'2015-07-20-12-53-42'
p3053
sg10
g11
sg12
S'26.5'
p3054
sa(dp3055
g2
g3
sg4
S'46.4'
p3056
sg6
g7
sg8
S'2015-07-20-12-54-42'
p3057
sg10
g11
sg12
S'26.5'
p3058
sa(dp3059
g2
g3
sg4
S'46.4'
p3060
sg6
g7
sg8
S'2015-07-20-12-55-43'
p3061
sg10
g11
sg12
S'26.5'
p3062
sa(dp3063
g2
g3
sg4
S'46.2'
p3064
sg6
g7
sg8
S'2015-07-20-12-56-43'
p3065
sg10
g11
sg12
S'26.5'
p3066
sa(dp3067
g2
g3
sg4
S'46.1'
p3068
sg6
g7
sg8
S'2015-07-20-12-57-44'
p3069
sg10
g11
sg12
S'26.5'
p3070
sa(dp3071
g2
g3
sg4
S'46.0'
p3072
sg6
g7
sg8
S'2015-07-20-12-58-44'
p3073
sg10
g11
sg12
S'26.5'
p3074
sa(dp3075
g2
g3
sg4
S'45.8'
p3076
sg6
g7
sg8
S'2015-07-20-12-59-45'
p3077
sg10
g11
sg12
S'26.5'
p3078
sa(dp3079
g2
g3
sg4
S'45.8'
p3080
sg6
g7
sg8
S'2015-07-20-13-00-48'
p3081
sg10
g11
sg12
S'26.3'
p3082
sa(dp3083
g2
g3
sg4
S'45.8'
p3084
sg6
g7
sg8
S'2015-07-20-13-01-49'
p3085
sg10
g11
sg12
S'26.3'
p3086
sa(dp3087
g2
g3
sg4
S'45.7'
p3088
sg6
g7
sg8
S'2015-07-20-13-02-49'
p3089
sg10
g11
sg12
S'26.3'
p3090
sa(dp3091
g2
g3
sg4
S'45.7'
p3092
sg6
g7
sg8
S'2015-07-20-13-03-50'
p3093
sg10
g11
sg12
S'26.3'
p3094
sa(dp3095
g2
g3
sg4
S'45.7'
p3096
sg6
g7
sg8
S'2015-07-20-13-04-50'
p3097
sg10
g11
sg12
S'26.3'
p3098
sa(dp3099
g2
g3
sg4
S'45.5'
p3100
sg6
g7
sg8
S'2015-07-20-13-05-51'
p3101
sg10
g11
sg12
S'26.3'
p3102
sa(dp3103
g2
g3
sg4
S'45.4'
p3104
sg6
g7
sg8
S'2015-07-20-13-06-51'
p3105
sg10
g11
sg12
S'26.3'
p3106
sa(dp3107
g2
g3
sg4
S'45.5'
p3108
sg6
g7
sg8
S'2015-07-20-13-07-52'
p3109
sg10
g11
sg12
S'26.2'
p3110
sa(dp3111
g2
g3
sg4
S'45.4'
p3112
sg6
g7
sg8
S'2015-07-20-13-08-53'
p3113
sg10
g11
sg12
S'26.2'
p3114
sa(dp3115
g2
g3
sg4
S'45.3'
p3116
sg6
g7
sg8
S'2015-07-20-13-09-53'
p3117
sg10
g11
sg12
S'26.3'
p3118
sa(dp3119
g2
g3
sg4
S'45.4'
p3120
sg6
g7
sg8
S'2015-07-20-13-10-54'
p3121
sg10
g11
sg12
S'26.3'
p3122
sa(dp3123
g2
g3
sg4
S'45.3'
p3124
sg6
g7
sg8
S'2015-07-20-13-11-54'
p3125
sg10
g11
sg12
S'26.3'
p3126
sa(dp3127
g2
g3
sg4
S'45.1'
p3128
sg6
g7
sg8
S'2015-07-20-13-12-57'
p3129
sg10
g11
sg12
S'26.3'
p3130
sa(dp3131
g2
g3
sg4
S'45.1'
p3132
sg6
g7
sg8
S'2015-07-20-13-13-58'
p3133
sg10
g11
sg12
S'26.3'
p3134
sa(dp3135
g2
g3
sg4
S'45.0'
p3136
sg6
g7
sg8
S'2015-07-20-13-14-59'
p3137
sg10
g11
sg12
S'26.3'
p3138
sa(dp3139
g2
g3
sg4
S'45.0'
p3140
sg6
g7
sg8
S'2015-07-20-13-15-59'
p3141
sg10
g11
sg12
S'26.4'
p3142
sa(dp3143
g2
g3
sg4
S'45.0'
p3144
sg6
g7
sg8
S'2015-07-20-13-17-00'
p3145
sg10
g11
sg12
S'26.4'
p3146
sa(dp3147
g2
g3
sg4
S'44.9'
p3148
sg6
g7
sg8
S'2015-07-20-13-18-00'
p3149
sg10
g11
sg12
S'26.4'
p3150
sa(dp3151
g2
g3
sg4
S'45.0'
p3152
sg6
g7
sg8
S'2015-07-20-13-19-01'
p3153
sg10
g11
sg12
S'26.4'
p3154
sa(dp3155
g2
g3
sg4
S'44.8'
p3156
sg6
g7
sg8
S'2015-07-20-13-20-01'
p3157
sg10
g11
sg12
S'26.4'
p3158
sa(dp3159
g2
g3
sg4
S'44.8'
p3160
sg6
g7
sg8
S'2015-07-20-13-21-02'
p3161
sg10
g11
sg12
S'26.3'
p3162
sa(dp3163
g2
g3
sg4
S'44.7'
p3164
sg6
g7
sg8
S'2015-07-20-13-22-03'
p3165
sg10
g11
sg12
S'26.3'
p3166
sa(dp3167
g2
g3
sg4
S'44.7'
p3168
sg6
g7
sg8
S'2015-07-20-13-23-03'
p3169
sg10
g11
sg12
S'26.3'
p3170
sa(dp3171
g2
g3
sg4
S'44.8'
p3172
sg6
g7
sg8
S'2015-07-20-13-24-04'
p3173
sg10
g11
sg12
S'26.3'
p3174
sa(dp3175
g2
g3
sg4
S'45.0'
p3176
sg6
g7
sg8
S'2015-07-20-13-25-07'
p3177
sg10
g11
sg12
S'26.3'
p3178
sa(dp3179
g2
g3
sg4
S'45.0'
p3180
sg6
g7
sg8
S'2015-07-20-13-26-07'
p3181
sg10
g11
sg12
S'26.3'
p3182
sa(dp3183
g2
g3
sg4
S'45.0'
p3184
sg6
g7
sg8
S'2015-07-20-13-27-10'
p3185
sg10
g11
sg12
S'26.3'
p3186
sa(dp3187
g2
g3
sg4
S'44.9'
p3188
sg6
g7
sg8
S'2015-07-20-13-28-11'
p3189
sg10
g11
sg12
S'26.3'
p3190
sa(dp3191
g2
g3
sg4
S'44.9'
p3192
sg6
g7
sg8
S'2015-07-20-13-29-12'
p3193
sg10
g11
sg12
S'26.3'
p3194
sa(dp3195
g2
g3
sg4
S'44.8'
p3196
sg6
g7
sg8
S'2015-07-20-13-30-12'
p3197
sg10
g11
sg12
S'26.3'
p3198
sa(dp3199
g2
g3
sg4
S'44.8'
p3200
sg6
g7
sg8
S'2015-07-20-13-31-13'
p3201
sg10
g11
sg12
S'26.3'
p3202
sa(dp3203
g2
g3
sg4
S'44.7'
p3204
sg6
g7
sg8
S'2015-07-20-13-32-16'
p3205
sg10
g11
sg12
S'26.2'
p3206
sa(dp3207
g2
g3
sg4
S'44.7'
p3208
sg6
g7
sg8
S'2015-07-20-13-33-16'
p3209
sg10
g11
sg12
S'26.2'
p3210
sa(dp3211
g2
g3
sg4
S'44.6'
p3212
sg6
g7
sg8
S'2015-07-20-13-34-17'
p3213
sg10
g11
sg12
S'26.2'
p3214
sa(dp3215
g2
g3
sg4
S'44.6'
p3216
sg6
g7
sg8
S'2015-07-20-13-35-18'
p3217
sg10
g11
sg12
S'26.2'
p3218
sa(dp3219
g2
g3
sg4
S'44.6'
p3220
sg6
g7
sg8
S'2015-07-20-13-36-18'
p3221
sg10
g11
sg12
S'26.2'
p3222
sa(dp3223
g2
g3
sg4
S'44.5'
p3224
sg6
g7
sg8
S'2015-07-20-13-37-19'
p3225
sg10
g11
sg12
S'26.2'
p3226
sa(dp3227
g2
g3
sg4
S'44.3'
p3228
sg6
g7
sg8
S'2015-07-20-13-38-19'
p3229
sg10
g11
sg12
S'26.1'
p3230
sa(dp3231
g2
g3
sg4
S'44.4'
p3232
sg6
g7
sg8
S'2015-07-20-13-39-20'
p3233
sg10
g11
sg12
S'26.1'
p3234
sa(dp3235
g2
g3
sg4
S'44.3'
p3236
sg6
g7
sg8
S'2015-07-20-13-40-20'
p3237
sg10
g11
sg12
S'26.1'
p3238
sa(dp3239
g2
g3
sg4
S'44.3'
p3240
sg6
g7
sg8
S'2015-07-20-13-41-21'
p3241
sg10
g11
sg12
S'26.1'
p3242
sa(dp3243
g2
g3
sg4
S'44.2'
p3244
sg6
g7
sg8
S'2015-07-20-13-42-22'
p3245
sg10
g11
sg12
S'26.0'
p3246
sa(dp3247
g2
g3
sg4
S'44.1'
p3248
sg6
g7
sg8
S'2015-07-20-13-43-22'
p3249
sg10
g11
sg12
S'26.0'
p3250
sa(dp3251
g2
g3
sg4
S'44.1'
p3252
sg6
g7
sg8
S'2015-07-20-13-44-23'
p3253
sg10
g11
sg12
S'26.0'
p3254
sa(dp3255
g2
g3
sg4
S'44.0'
p3256
sg6
g7
sg8
S'2015-07-20-13-45-23'
p3257
sg10
g11
sg12
S'26.0'
p3258
sa(dp3259
g2
g3
sg4
S'43.6'
p3260
sg6
g7
sg8
S'2015-07-20-13-46-24'
p3261
sg10
g11
sg12
S'25.9'
p3262
sa(dp3263
g2
g3
sg4
S'43.4'
p3264
sg6
g7
sg8
S'2015-07-20-13-47-24'
p3265
sg10
g11
sg12
S'25.9'
p3266
sa(dp3267
g2
g3
sg4
S'43.4'
p3268
sg6
g7
sg8
S'2015-07-20-13-48-25'
p3269
sg10
g11
sg12
S'25.9'
p3270
sa(dp3271
g2
g3
sg4
S'43.4'
p3272
sg6
g7
sg8
S'2015-07-20-13-49-26'
p3273
sg10
g11
sg12
S'25.9'
p3274
sa(dp3275
g2
g3
sg4
S'43.3'
p3276
sg6
g7
sg8
S'2015-07-20-13-50-26'
p3277
sg10
g11
sg12
S'25.8'
p3278
sa(dp3279
g2
g3
sg4
S'43.2'
p3280
sg6
g7
sg8
S'2015-07-20-13-51-27'
p3281
sg10
g11
sg12
S'25.8'
p3282
sa(dp3283
g2
g3
sg4
S'43.1'
p3284
sg6
g7
sg8
S'2015-07-20-13-52-27'
p3285
sg10
g11
sg12
S'25.8'
p3286
sa(dp3287
g2
g3
sg4
S'43.2'
p3288
sg6
g7
sg8
S'2015-07-20-13-53-30'
p3289
sg10
g11
sg12
S'25.8'
p3290
sa(dp3291
g2
g3
sg4
S'43.0'
p3292
sg6
g7
sg8
S'2015-07-20-13-54-39'
p3293
sg10
g11
sg12
S'25.8'
p3294
sa(dp3295
g2
g3
sg4
S'43.0'
p3296
sg6
g7
sg8
S'2015-07-20-13-55-42'
p3297
sg10
g11
sg12
S'25.7'
p3298
sa(dp3299
g2
g3
sg4
S'43.0'
p3300
sg6
g7
sg8
S'2015-07-20-13-56-42'
p3301
sg10
g11
sg12
S'25.8'
p3302
sa(dp3303
g2
g3
sg4
S'42.9'
p3304
sg6
g7
sg8
S'2015-07-20-13-57-43'
p3305
sg10
g11
sg12
S'25.8'
p3306
sa(dp3307
g2
g3
sg4
S'42.9'
p3308
sg6
g7
sg8
S'2015-07-20-13-58-43'
p3309
sg10
g11
sg12
S'25.7'
p3310
sa(dp3311
g2
g3
sg4
S'42.9'
p3312
sg6
g7
sg8
S'2015-07-20-13-59-44'
p3313
sg10
g11
sg12
S'25.7'
p3314
sa(dp3315
g2
g3
sg4
S'42.8'
p3316
sg6
g7
sg8
S'2015-07-20-14-00-44'
p3317
sg10
g11
sg12
S'25.7'
p3318
sa(dp3319
g2
g3
sg4
S'42.8'
p3320
sg6
g7
sg8
S'2015-07-20-14-01-45'
p3321
sg10
g11
sg12
S'25.6'
p3322
sa(dp3323
g2
g3
sg4
S'42.8'
p3324
sg6
g7
sg8
S'2015-07-20-14-02-46'
p3325
sg10
g11
sg12
S'25.6'
p3326
sa(dp3327
g2
g3
sg4
S'42.8'
p3328
sg6
g7
sg8
S'2015-07-20-14-03-46'
p3329
sg10
g11
sg12
S'25.7'
p3330
sa(dp3331
g2
g3
sg4
S'42.8'
p3332
sg6
g7
sg8
S'2015-07-20-14-04-47'
p3333
sg10
g11
sg12
S'25.7'
p3334
sa(dp3335
g2
g3
sg4
S'42.7'
p3336
sg6
g7
sg8
S'2015-07-20-14-05-47'
p3337
sg10
g11
sg12
S'25.7'
p3338
sa(dp3339
g2
g3
sg4
S'42.6'
p3340
sg6
g7
sg8
S'2015-07-20-14-06-48'
p3341
sg10
g11
sg12
S'25.8'
p3342
sa(dp3343
g2
g3
sg4
S'42.4'
p3344
sg6
g7
sg8
S'2015-07-20-14-07-48'
p3345
sg10
g11
sg12
S'25.8'
p3346
sa(dp3347
g2
g3
sg4
S'42.3'
p3348
sg6
g7
sg8
S'2015-07-20-14-08-49'
p3349
sg10
g11
sg12
S'25.8'
p3350
sa(dp3351
g2
g3
sg4
S'42.2'
p3352
sg6
g7
sg8
S'2015-07-20-14-09-50'
p3353
sg10
g11
sg12
S'25.8'
p3354
sa(dp3355
g2
g3
sg4
S'42.1'
p3356
sg6
g7
sg8
S'2015-07-20-14-10-50'
p3357
sg10
g11
sg12
S'25.8'
p3358
sa(dp3359
g2
g3
sg4
S'42.1'
p3360
sg6
g7
sg8
S'2015-07-20-14-11-51'
p3361
sg10
g11
sg12
S'25.7'
p3362
sa(dp3363
g2
g3
sg4
S'42.1'
p3364
sg6
g7
sg8
S'2015-07-20-14-12-51'
p3365
sg10
g11
sg12
S'25.7'
p3366
sa(dp3367
g2
g3
sg4
S'42.0'
p3368
sg6
g7
sg8
S'2015-07-20-14-13-52'
p3369
sg10
g11
sg12
S'25.7'
p3370
sa(dp3371
g2
g3
sg4
S'41.9'
p3372
sg6
g7
sg8
S'2015-07-20-14-14-52'
p3373
sg10
g11
sg12
S'25.7'
p3374
sa(dp3375
g2
g3
sg4
S'41.8'
p3376
sg6
g7
sg8
S'2015-07-20-14-15-53'
p3377
sg10
g11
sg12
S'25.7'
p3378
sa(dp3379
g2
g3
sg4
S'41.7'
p3380
sg6
g7
sg8
S'2015-07-20-14-16-53'
p3381
sg10
g11
sg12
S'25.7'
p3382
sa(dp3383
g2
g3
sg4
S'41.6'
p3384
sg6
g7
sg8
S'2015-07-20-14-17-54'
p3385
sg10
g11
sg12
S'25.7'
p3386
sa(dp3387
g2
g3
sg4
S'41.5'
p3388
sg6
g7
sg8
S'2015-07-20-14-18-57'
p3389
sg10
g11
sg12
S'25.6'
p3390
sa(dp3391
g2
g3
sg4
S'41.5'
p3392
sg6
g7
sg8
S'2015-07-20-14-19-58'
p3393
sg10
g11
sg12
S'25.6'
p3394
sa(dp3395
g2
g3
sg4
S'41.5'
p3396
sg6
g7
sg8
S'2015-07-20-14-20-58'
p3397
sg10
g11
sg12
S'25.6'
p3398
sa(dp3399
g2
g3
sg4
S'41.4'
p3400
sg6
g7
sg8
S'2015-07-20-14-21-59'
p3401
sg10
g11
sg12
S'25.6'
p3402
sa(dp3403
g2
g3
sg4
S'41.5'
p3404
sg6
g7
sg8
S'2015-07-20-14-22-59'
p3405
sg10
g11
sg12
S'25.6'
p3406
sa(dp3407
g2
g3
sg4
S'41.4'
p3408
sg6
g7
sg8
S'2015-07-20-14-24-00'
p3409
sg10
g11
sg12
S'25.5'
p3410
sa(dp3411
g2
g3
sg4
S'41.4'
p3412
sg6
g7
sg8
S'2015-07-20-14-25-01'
p3413
sg10
g11
sg12
S'25.5'
p3414
sa(dp3415
g2
g3
sg4
S'41.3'
p3416
sg6
g7
sg8
S'2015-07-20-14-26-01'
p3417
sg10
g11
sg12
S'25.6'
p3418
sa(dp3419
g2
g3
sg4
S'41.3'
p3420
sg6
g7
sg8
S'2015-07-20-14-27-02'
p3421
sg10
g11
sg12
S'25.5'
p3422
sa(dp3423
g2
g3
sg4
S'41.2'
p3424
sg6
g7
sg8
S'2015-07-20-14-28-02'
p3425
sg10
g11
sg12
S'25.6'
p3426
sa(dp3427
g2
g3
sg4
S'41.2'
p3428
sg6
g7
sg8
S'2015-07-20-14-29-03'
p3429
sg10
g11
sg12
S'25.6'
p3430
sa(dp3431
g2
g3
sg4
S'41.0'
p3432
sg6
g7
sg8
S'2015-07-20-14-30-03'
p3433
sg10
g11
sg12
S'25.5'
p3434
sa(dp3435
g2
g3
sg4
S'41.1'
p3436
sg6
g7
sg8
S'2015-07-20-14-31-04'
p3437
sg10
g11
sg12
S'25.5'
p3438
sa(dp3439
g2
g3
sg4
S'41.1'
p3440
sg6
g7
sg8
S'2015-07-20-14-32-05'
p3441
sg10
g11
sg12
S'25.4'
p3442
sa(dp3443
g2
g3
sg4
S'41.0'
p3444
sg6
g7
sg8
S'2015-07-20-14-33-05'
p3445
sg10
g11
sg12
S'25.4'
p3446
sa(dp3447
g2
g3
sg4
S'40.9'
p3448
sg6
g7
sg8
S'2015-07-20-14-34-06'
p3449
sg10
g11
sg12
S'25.4'
p3450
sa(dp3451
g2
g3
sg4
S'41.0'
p3452
sg6
g7
sg8
S'2015-07-20-14-35-06'
p3453
sg10
g11
sg12
S'25.4'
p3454
sa(dp3455
g2
g3
sg4
S'41.0'
p3456
sg6
g7
sg8
S'2015-07-20-14-36-07'
p3457
sg10
g11
sg12
S'25.4'
p3458
sa(dp3459
g2
g3
sg4
S'41.0'
p3460
sg6
g7
sg8
S'2015-07-20-14-37-07'
p3461
sg10
g11
sg12
S'25.4'
p3462
sa(dp3463
g2
g3
sg4
S'41.0'
p3464
sg6
g7
sg8
S'2015-07-20-14-38-08'
p3465
sg10
g11
sg12
S'25.4'
p3466
sa(dp3467
g2
g3
sg4
S'40.8'
p3468
sg6
g7
sg8
S'2015-07-20-14-39-08'
p3469
sg10
g11
sg12
S'25.4'
p3470
sa(dp3471
g2
g3
sg4
S'40.6'
p3472
sg6
g7
sg8
S'2015-07-20-14-40-12'
p3473
sg10
g11
sg12
S'25.4'
p3474
sa(dp3475
g2
g3
sg4
S'40.6'
p3476
sg6
g7
sg8
S'2015-07-20-14-41-12'
p3477
sg10
g11
sg12
S'25.4'
p3478
sa(dp3479
g2
g3
sg4
S'40.5'
p3480
sg6
g7
sg8
S'2015-07-20-14-42-13'
p3481
sg10
g11
sg12
S'25.4'
p3482
sa(dp3483
g2
g3
sg4
S'40.6'
p3484
sg6
g7
sg8
S'2015-07-20-14-43-13'
p3485
sg10
g11
sg12
S'25.4'
p3486
sa(dp3487
g2
g3
sg4
S'40.4'
p3488
sg6
g7
sg8
S'2015-07-20-14-44-16'
p3489
sg10
g11
sg12
S'25.4'
p3490
sa(dp3491
g2
g3
sg4
S'40.4'
p3492
sg6
g7
sg8
S'2015-07-20-14-45-17'
p3493
sg10
g11
sg12
S'25.4'
p3494
sa(dp3495
g2
g3
sg4
S'40.4'
p3496
sg6
g7
sg8
S'2015-07-20-14-46-20'
p3497
sg10
g11
sg12
S'25.3'
p3498
sa(dp3499
g2
g3
sg4
S'40.4'
p3500
sg6
g7
sg8
S'2015-07-20-14-47-21'
p3501
sg10
g11
sg12
S'25.3'
p3502
sa(dp3503
g2
g3
sg4
S'40.3'
p3504
sg6
g7
sg8
S'2015-07-20-14-48-21'
p3505
sg10
g11
sg12
S'25.3'
p3506
sa(dp3507
g2
g3
sg4
S'40.2'
p3508
sg6
g7
sg8
S'2015-07-20-14-49-22'
p3509
sg10
g11
sg12
S'25.3'
p3510
sa(dp3511
g2
g3
sg4
S'40.2'
p3512
sg6
g7
sg8
S'2015-07-20-14-50-25'
p3513
sg10
g11
sg12
S'25.3'
p3514
sa(dp3515
g2
g3
sg4
S'40.1'
p3516
sg6
g7
sg8
S'2015-07-20-14-51-25'
p3517
sg10
g11
sg12
S'25.3'
p3518
sa(dp3519
g2
g3
sg4
S'40.1'
p3520
sg6
g7
sg8
S'2015-07-20-14-52-31'
p3521
sg10
g11
sg12
S'25.3'
p3522
sa(dp3523
g2
g3
sg4
S'40.0'
p3524
sg6
g7
sg8
S'2015-07-20-14-53-34'
p3525
sg10
g11
sg12
S'25.3'
p3526
sa(dp3527
g2
g3
sg4
S'40.0'
p3528
sg6
g7
sg8
S'2015-07-20-14-54-35'
p3529
sg10
g1285
sg12
S'25.3'
p3530
sa(dp3531
g2
g3
sg4
S'40.1'
p3532
sg6
g7
sg8
S'2015-07-20-14-55-38'
p3533
sg10
g11
sg12
S'25.2'
p3534
sa(dp3535
g2
g3
sg4
S'40.1'
p3536
sg6
g7
sg8
S'2015-07-20-14-56-38'
p3537
sg10
g11
sg12
S'25.3'
p3538
sa(dp3539
g2
g3
sg4
S'40.1'
p3540
sg6
g7
sg8
S'2015-07-20-14-57-41'
p3541
sg10
g11
sg12
S'25.2'
p3542
sa(dp3543
g2
g3
sg4
S'40.1'
p3544
sg6
g7
sg8
S'2015-07-20-14-58-42'
p3545
sg10
g11
sg12
S'25.3'
p3546
sa(dp3547
g2
g3
sg4
S'40.0'
p3548
sg6
g7
sg8
S'2015-07-20-14-59-43'
p3549
sg10
g11
sg12
S'25.3'
p3550
sa(dp3551
g2
g3
sg4
S'39.9'
p3552
sg6
g7
sg8
S'2015-07-20-15-00-43'
p3553
sg10
g11
sg12
S'25.3'
p3554
sa(dp3555
g2
g3
sg4
S'39.9'
p3556
sg6
g7
sg8
S'2015-07-20-15-01-44'
p3557
sg10
g11
sg12
S'25.3'
p3558
sa(dp3559
g2
g3
sg4
S'39.9'
p3560
sg6
g7
sg8
S'2015-07-20-15-02-44'
p3561
sg10
g11
sg12
S'25.3'
p3562
sa(dp3563
g2
g3
sg4
S'39.9'
p3564
sg6
g7
sg8
S'2015-07-20-15-03-45'
p3565
sg10
g11
sg12
S'25.3'
p3566
sa(dp3567
g2
g3
sg4
S'39.9'
p3568
sg6
g7
sg8
S'2015-07-20-15-04-45'
p3569
sg10
g11
sg12
S'25.3'
p3570
sa(dp3571
g2
g3
sg4
S'39.9'
p3572
sg6
g7
sg8
S'2015-07-20-15-05-46'
p3573
sg10
g11
sg12
S'25.3'
p3574
sa(dp3575
g2
g3
sg4
S'39.8'
p3576
sg6
g7
sg8
S'2015-07-20-15-06-49'
p3577
sg10
g11
sg12
S'25.3'
p3578
sa(dp3579
g2
g3
sg4
S'39.8'
p3580
sg6
g7
sg8
S'2015-07-20-15-07-50'
p3581
sg10
g11
sg12
S'25.3'
p3582
sa(dp3583
g2
g3
sg4
S'39.8'
p3584
sg6
g7
sg8
S'2015-07-20-15-08-50'
p3585
sg10
g11
sg12
S'25.3'
p3586
sa(dp3587
g2
g3
sg4
S'39.7'
p3588
sg6
g7
sg8
S'2015-07-20-15-09-53'
p3589
sg10
g11
sg12
S'25.3'
p3590
sa(dp3591
g2
g3
sg4
S'39.7'
p3592
sg6
g7
sg8
S'2015-07-20-15-10-54'
p3593
sg10
g11
sg12
S'25.2'
p3594
sa(dp3595
g2
g3
sg4
S'39.7'
p3596
sg6
g7
sg8
S'2015-07-20-15-11-54'
p3597
sg10
g11
sg12
S'25.3'
p3598
sa(dp3599
g2
g3
sg4
S'39.8'
p3600
sg6
g7
sg8
S'2015-07-20-15-12-55'
p3601
sg10
g11
sg12
S'25.3'
p3602
sa(dp3603
g2
g3
sg4
S'39.5'
p3604
sg6
g7
sg8
S'2015-07-20-15-13-58'
p3605
sg10
g11
sg12
S'25.3'
p3606
sa(dp3607
g2
g3
sg4
S'39.6'
p3608
sg6
g7
sg8
S'2015-07-20-15-14-59'
p3609
sg10
g11
sg12
S'25.3'
p3610
sa(dp3611
g2
g3
sg4
S'39.5'
p3612
sg6
g7
sg8
S'2015-07-20-15-15-59'
p3613
sg10
g11
sg12
S'25.3'
p3614
sa(dp3615
g2
g3
sg4
S'39.6'
p3616
sg6
g7
sg8
S'2015-07-20-15-17-00'
p3617
sg10
g11
sg12
S'25.3'
p3618
sa(dp3619
g2
g3
sg4
S'39.6'
p3620
sg6
g7
sg8
S'2015-07-20-15-18-00'
p3621
sg10
g11
sg12
S'25.3'
p3622
sa(dp3623
g2
g3
sg4
S'39.3'
p3624
sg6
g7
sg8
S'2015-07-20-15-19-01'
p3625
sg10
g11
sg12
S'25.3'
p3626
sa(dp3627
g2
g3
sg4
S'39.5'
p3628
sg6
g7
sg8
S'2015-07-20-15-20-01'
p3629
sg10
g11
sg12
S'25.3'
p3630
sa(dp3631
g2
g3
sg4
S'39.5'
p3632
sg6
g7
sg8
S'2015-07-20-15-21-02'
p3633
sg10
g11
sg12
S'25.3'
p3634
sa(dp3635
g2
g3
sg4
S'39.4'
p3636
sg6
g7
sg8
S'2015-07-20-15-22-03'
p3637
sg10
g11
sg12
S'25.3'
p3638
sa(dp3639
g2
g3
sg4
S'39.5'
p3640
sg6
g7
sg8
S'2015-07-20-15-23-08'
p3641
sg10
g11
sg12
S'25.3'
p3642
sa(dp3643
g2
g3
sg4
S'39.5'
p3644
sg6
g7
sg8
S'2015-07-20-15-24-11'
p3645
sg10
g11
sg12
S'25.3'
p3646
sa(dp3647
g2
g3
sg4
S'39.5'
p3648
sg6
g7
sg8
S'2015-07-20-15-25-12'
p3649
sg10
g11
sg12
S'25.3'
p3650
sa(dp3651
g2
g3
sg4
S'39.4'
p3652
sg6
g7
sg8
S'2015-07-20-15-26-15'
p3653
sg10
g11
sg12
S'25.3'
p3654
sa(dp3655
g2
g3
sg4
S'39.4'
p3656
sg6
g7
sg8
S'2015-07-20-15-27-16'
p3657
sg10
g11
sg12
S'25.3'
p3658
sa(dp3659
g2
g3
sg4
S'39.4'
p3660
sg6
g7
sg8
S'2015-07-20-15-28-16'
p3661
sg10
g11
sg12
S'25.3'
p3662
sa(dp3663
g2
g3
sg4
S'39.4'
p3664
sg6
g7
sg8
S'2015-07-20-15-29-17'
p3665
sg10
g11
sg12
S'25.3'
p3666
sa(dp3667
g2
g3
sg4
S'39.4'
p3668
sg6
g7
sg8
S'2015-07-20-15-30-17'
p3669
sg10
g11
sg12
S'25.3'
p3670
sa(dp3671
g2
g3
sg4
S'39.4'
p3672
sg6
g7
sg8
S'2015-07-20-15-31-18'
p3673
sg10
g11
sg12
S'25.3'
p3674
sa(dp3675
g2
g3
sg4
S'39.4'
p3676
sg6
g7
sg8
S'2015-07-20-15-32-18'
p3677
sg10
g11
sg12
S'25.4'
p3678
sa(dp3679
g2
g3
sg4
S'39.4'
p3680
sg6
g7
sg8
S'2015-07-20-15-33-22'
p3681
sg10
g11
sg12
S'25.3'
p3682
sa(dp3683
g2
g3
sg4
S'39.4'
p3684
sg6
g7
sg8
S'2015-07-20-15-34-22'
p3685
sg10
g11
sg12
S'25.3'
p3686
sa(dp3687
g2
g3
sg4
S'39.3'
p3688
sg6
g7
sg8
S'2015-07-20-15-35-23'
p3689
sg10
g11
sg12
S'25.4'
p3690
sa(dp3691
g2
g3
sg4
S'39.3'
p3692
sg6
g7
sg8
S'2015-07-20-15-36-23'
p3693
sg10
g11
sg12
S'25.4'
p3694
sa(dp3695
g2
g3
sg4
S'39.3'
p3696
sg6
g7
sg8
S'2015-07-20-15-37-24'
p3697
sg10
g11
sg12
S'25.4'
p3698
sa(dp3699
g2
g3
sg4
S'39.3'
p3700
sg6
g7
sg8
S'2015-07-20-15-38-24'
p3701
sg10
g11
sg12
S'25.3'
p3702
sa(dp3703
g2
g3
sg4
S'39.3'
p3704
sg6
g7
sg8
S'2015-07-20-15-39-25'
p3705
sg10
g11
sg12
S'25.3'
p3706
sa(dp3707
g2
g3
sg4
S'39.3'
p3708
sg6
g7
sg8
S'2015-07-20-15-40-26'
p3709
sg10
g11
sg12
S'25.3'
p3710
sa(dp3711
g2
g3
sg4
S'39.3'
p3712
sg6
g7
sg8
S'2015-07-20-15-41-26'
p3713
sg10
g11
sg12
S'25.4'
p3714
sa(dp3715
g2
g3
sg4
S'39.3'
p3716
sg6
g7
sg8
S'2015-07-20-15-42-27'
p3717
sg10
g11
sg12
S'25.4'
p3718
sa(dp3719
g2
g3
sg4
S'39.3'
p3720
sg6
g7
sg8
S'2015-07-20-15-43-27'
p3721
sg10
g11
sg12
S'25.4'
p3722
sa(dp3723
g2
g3
sg4
S'39.3'
p3724
sg6
g7
sg8
S'2015-07-20-15-44-28'
p3725
sg10
g11
sg12
S'25.3'
p3726
sa(dp3727
g2
g3
sg4
S'39.3'
p3728
sg6
g7
sg8
S'2015-07-20-15-45-28'
p3729
sg10
g11
sg12
S'25.3'
p3730
sa(dp3731
g2
g3
sg4
S'39.3'
p3732
sg6
g7
sg8
S'2015-07-20-15-46-37'
p3733
sg10
g11
sg12
S'25.3'
p3734
sa(dp3735
g2
g3
sg4
S'39.3'
p3736
sg6
g7
sg8
S'2015-07-20-15-47-37'
p3737
sg10
g11
sg12
S'25.3'
p3738
sa(dp3739
g2
g3
sg4
S'39.3'
p3740
sg6
g7
sg8
S'2015-07-20-15-48-38'
p3741
sg10
g11
sg12
S'25.3'
p3742
sa(dp3743
g2
g3
sg4
S'39.3'
p3744
sg6
g7
sg8
S'2015-07-20-15-49-38'
p3745
sg10
g11
sg12
S'25.3'
p3746
sa(dp3747
g2
g3
sg4
S'39.4'
p3748
sg6
g7
sg8
S'2015-07-20-15-50-39'
p3749
sg10
g11
sg12
S'25.3'
p3750
sa(dp3751
g2
g3
sg4
S'39.4'
p3752
sg6
g7
sg8
S'2015-07-20-15-51-42'
p3753
sg10
g11
sg12
S'25.2'
p3754
sa(dp3755
g2
g3
sg4
S'39.5'
p3756
sg6
g7
sg8
S'2015-07-20-15-52-45'
p3757
sg10
g11
sg12
S'25.2'
p3758
sa(dp3759
g2
g3
sg4
S'39.4'
p3760
sg6
g7
sg8
S'2015-07-20-15-53-48'
p3761
sg10
g11
sg12
S'25.2'
p3762
sa(dp3763
g2
g3
sg4
S'39.5'
p3764
sg6
g7
sg8
S'2015-07-20-15-54-49'
p3765
sg10
g11
sg12
S'25.1'
p3766
sa(dp3767
g2
g3
sg4
S'39.5'
p3768
sg6
g7
sg8
S'2015-07-20-15-55-52'
p3769
sg10
g11
sg12
S'25.1'
p3770
sa(dp3771
g2
g3
sg4
S'39.5'
p3772
sg6
g7
sg8
S'2015-07-20-15-56-52'
p3773
sg10
g11
sg12
S'25.2'
p3774
sa(dp3775
g2
g3
sg4
S'39.5'
p3776
sg6
g7
sg8
S'2015-07-20-15-57-53'
p3777
sg10
g11
sg12
S'25.2'
p3778
sa(dp3779
g2
g3
sg4
S'39.5'
p3780
sg6
g7
sg8
S'2015-07-20-15-58-53'
p3781
sg10
g11
sg12
S'25.2'
p3782
sa(dp3783
g2
g3
sg4
S'39.5'
p3784
sg6
g7
sg8
S'2015-07-20-15-59-54'
p3785
sg10
g11
sg12
S'25.2'
p3786
sa(dp3787
g2
g3
sg4
S'39.5'
p3788
sg6
g7
sg8
S'2015-07-20-16-00-55'
p3789
sg10
g11
sg12
S'25.2'
p3790
sa(dp3791
g2
g3
sg4
S'39.5'
p3792
sg6
g7
sg8
S'2015-07-20-16-01-55'
p3793
sg10
g11
sg12
S'25.2'
p3794
sa(dp3795
g2
g3
sg4
S'39.5'
p3796
sg6
g7
sg8
S'2015-07-20-16-02-56'
p3797
sg10
g11
sg12
S'25.2'
p3798
sa(dp3799
g2
g3
sg4
S'39.5'
p3800
sg6
g7
sg8
S'2015-07-20-16-03-56'
p3801
sg10
g11
sg12
S'25.2'
p3802
sa(dp3803
g2
g3
sg4
S'39.4'
p3804
sg6
g7
sg8
S'2015-07-20-16-04-57'
p3805
sg10
g11
sg12
S'25.2'
p3806
sa(dp3807
g2
g3
sg4
S'39.4'
p3808
sg6
g7
sg8
S'2015-07-20-16-05-57'
p3809
sg10
g11
sg12
S'25.2'
p3810
sa(dp3811
g2
g3
sg4
S'39.3'
p3812
sg6
g7
sg8
S'2015-07-20-16-07-03'
p3813
sg10
g11
sg12
S'25.2'
p3814
sa(dp3815
g2
g3
sg4
S'39.3'
p3816
sg6
g7
sg8
S'2015-07-20-16-08-04'
p3817
sg10
g11
sg12
S'25.2'
p3818
sa(dp3819
g2
g3
sg4
S'39.4'
p3820
sg6
g7
sg8
S'2015-07-20-16-09-04'
p3821
sg10
g11
sg12
S'25.2'
p3822
sa(dp3823
g2
g3
sg4
S'39.3'
p3824
sg6
g7
sg8
S'2015-07-20-16-10-05'
p3825
sg10
g11
sg12
S'25.2'
p3826
sa(dp3827
g2
g3
sg4
S'39.2'
p3828
sg6
g7
sg8
S'2015-07-20-16-11-05'
p3829
sg10
g11
sg12
S'25.2'
p3830
sa(dp3831
g2
g3
sg4
S'38.9'
p3832
sg6
g7
sg8
S'2015-07-20-16-12-06'
p3833
sg10
g11
sg12
S'25.3'
p3834
sa(dp3835
g2
g3
sg4
S'38.9'
p3836
sg6
g7
sg8
S'2015-07-20-16-13-09'
p3837
sg10
g11
sg12
S'25.3'
p3838
sa(dp3839
g2
g3
sg4
S'38.9'
p3840
sg6
g7
sg8
S'2015-07-20-16-14-10'
p3841
sg10
g11
sg12
S'25.3'
p3842
sa(dp3843
g2
g3
sg4
S'38.9'
p3844
sg6
g7
sg8
S'2015-07-20-16-15-10'
p3845
sg10
g11
sg12
S'25.2'
p3846
sa(dp3847
g2
g3
sg4
S'38.8'
p3848
sg6
g7
sg8
S'2015-07-20-16-16-11'
p3849
sg10
g11
sg12
S'25.3'
p3850
sa(dp3851
g2
g3
sg4
S'38.9'
p3852
sg6
g7
sg8
S'2015-07-20-16-17-11'
p3853
sg10
g11
sg12
S'25.2'
p3854
sa(dp3855
g2
g3
sg4
S'39.0'
p3856
sg6
g7
sg8
S'2015-07-20-16-18-12'
p3857
sg10
g11
sg12
S'25.2'
p3858
sa(dp3859
g2
g3
sg4
S'39.2'
p3860
sg6
g7
sg8
S'2015-07-20-16-19-15'
p3861
sg10
g11
sg12
S'25.2'
p3862
sa(dp3863
g2
g3
sg4
S'39.2'
p3864
sg6
g7
sg8
S'2015-07-20-16-20-15'
p3865
sg10
g11
sg12
S'25.2'
p3866
sa(dp3867
g2
g3
sg4
S'39.3'
p3868
sg6
g7
sg8
S'2015-07-20-16-21-16'
p3869
sg10
g11
sg12
S'25.3'
p3870
sa(dp3871
g2
g3
sg4
S'39.3'
p3872
sg6
g7
sg8
S'2015-07-20-16-22-17'
p3873
sg10
g11
sg12
S'25.4'
p3874
sa(dp3875
g2
g3
sg4
S'39.3'
p3876
sg6
g7
sg8
S'2015-07-20-16-23-17'
p3877
sg10
g1285
sg12
S'25.5'
p3878
sa(dp3879
g2
g3
sg4
S'39.3'
p3880
sg6
g7
sg8
S'2015-07-20-16-24-18'
p3881
sg10
g11
sg12
S'25.6'
p3882
sa(dp3883
g2
g3
sg4
S'39.3'
p3884
sg6
g7
sg8
S'2015-07-20-16-25-18'
p3885
sg10
g11
sg12
S'25.6'
p3886
sa(dp3887
g2
g3
sg4
S'39.3'
p3888
sg6
g7
sg8
S'2015-07-20-16-26-19'
p3889
sg10
g11
sg12
S'25.7'
p3890
sa(dp3891
g2
g3
sg4
S'39.3'
p3892
sg6
g7
sg8
S'2015-07-20-16-27-19'
p3893
sg10
g11
sg12
S'25.8'
p3894
sa(dp3895
g2
g3
sg4
S'39.3'
p3896
sg6
g7
sg8
S'2015-07-20-16-28-20'
p3897
sg10
g11
sg12
S'25.8'
p3898
sa(dp3899
g2
g3
sg4
S'39.4'
p3900
sg6
g7
sg8
S'2015-07-20-16-29-21'
p3901
sg10
g11
sg12
S'25.9'
p3902
sa(dp3903
g2
g3
sg4
S'40.0'
p3904
sg6
g7
sg8
S'2015-07-20-16-30-24'
p3905
sg10
g11
sg12
S'26.0'
p3906
sa(dp3907
g2
g3
sg4
S'40.1'
p3908
sg6
g7
sg8
S'2015-07-20-16-31-27'
p3909
sg10
g11
sg12
S'26.1'
p3910
sa(dp3911
g2
g3
sg4
S'40.1'
p3912
sg6
g7
sg8
S'2015-07-20-16-32-27'
p3913
sg10
g11
sg12
S'26.1'
p3914
sa(dp3915
g2
g3
sg4
S'40.2'
p3916
sg6
g7
sg8
S'2015-07-20-16-33-28'
p3917
sg10
g11
sg12
S'26.1'
p3918
sa(dp3919
g2
g3
sg4
S'40.2'
p3920
sg6
g7
sg8
S'2015-07-20-16-34-29'
p3921
sg10
g11
sg12
S'26.1'
p3922
sa(dp3923
g2
g3
sg4
S'40.2'
p3924
sg6
g7
sg8
S'2015-07-20-16-35-29'
p3925
sg10
g11
sg12
S'26.2'
p3926
sa(dp3927
g2
g3
sg4
S'40.3'
p3928
sg6
g7
sg8
S'2015-07-20-16-36-30'
p3929
sg10
g11
sg12
S'26.2'
p3930
sa(dp3931
g2
g3
sg4
S'40.3'
p3932
sg6
g7
sg8
S'2015-07-20-16-37-30'
p3933
sg10
g11
sg12
S'26.2'
p3934
sa(dp3935
g2
g3
sg4
S'40.4'
p3936
sg6
g7
sg8
S'2015-07-20-16-38-31'
p3937
sg10
g11
sg12
S'26.3'
p3938
sa(dp3939
g2
g3
sg4
S'40.4'
p3940
sg6
g7
sg8
S'2015-07-20-16-39-31'
p3941
sg10
g11
sg12
S'26.3'
p3942
sa(dp3943
g2
g3
sg4
S'40.5'
p3944
sg6
g7
sg8
S'2015-07-20-16-40-32'
p3945
sg10
g11
sg12
S'26.4'
p3946
sa(dp3947
g2
g3
sg4
S'40.5'
p3948
sg6
g7
sg8
S'2015-07-20-16-41-32'
p3949
sg10
g11
sg12
S'26.4'
p3950
sa(dp3951
g2
g3
sg4
S'40.6'
p3952
sg6
g7
sg8
S'2015-07-20-16-42-33'
p3953
sg10
g11
sg12
S'26.4'
p3954
sa(dp3955
g2
g3
sg4
S'40.7'
p3956
sg6
g7
sg8
S'2015-07-20-16-43-34'
p3957
sg10
g11
sg12
S'26.4'
p3958
sa(dp3959
g2
g3
sg4
S'40.7'
p3960
sg6
g7
sg8
S'2015-07-20-16-44-34'
p3961
sg10
g11
sg12
S'26.5'
p3962
sa(dp3963
g2
g3
sg4
S'40.8'
p3964
sg6
g7
sg8
S'2015-07-20-16-45-35'
p3965
sg10
g11
sg12
S'26.5'
p3966
sa(dp3967
g2
g3
sg4
S'40.8'
p3968
sg6
g7
sg8
S'2015-07-20-16-46-35'
p3969
sg10
g11
sg12
S'26.5'
p3970
sa(dp3971
g2
g3
sg4
S'41.0'
p3972
sg6
g7
sg8
S'2015-07-20-16-47-36'
p3973
sg10
g11
sg12
S'26.6'
p3974
sa(dp3975
g2
g3
sg4
S'41.0'
p3976
sg6
g7
sg8
S'2015-07-20-16-48-36'
p3977
sg10
g11
sg12
S'26.6'
p3978
sa(dp3979
g2
g3
sg4
S'41.1'
p3980
sg6
g7
sg8
S'2015-07-20-16-49-37'
p3981
sg10
g11
sg12
S'26.6'
p3982
sa(dp3983
g2
g3
sg4
S'41.3'
p3984
sg6
g7
sg8
S'2015-07-20-16-50-38'
p3985
sg10
g11
sg12
S'26.6'
p3986
sa(dp3987
g2
g3
sg4
S'41.5'
p3988
sg6
g7
sg8
S'2015-07-20-16-51-41'
p3989
sg10
g11
sg12
S'26.6'
p3990
sa(dp3991
g2
g3
sg4
S'41.5'
p3992
sg6
g7
sg8
S'2015-07-20-16-52-41'
p3993
sg10
g11
sg12
S'26.7'
p3994
sa(dp3995
g2
g3
sg4
S'41.5'
p3996
sg6
g7
sg8
S'2015-07-20-16-53-42'
p3997
sg10
g11
sg12
S'26.7'
p3998
sa(dp3999
g2
g3
sg4
S'41.7'
p4000
sg6
g7
sg8
S'2015-07-20-16-54-42'
p4001
sg10
g11
sg12
S'26.8'
p4002
sa(dp4003
g2
g3
sg4
S'41.9'
p4004
sg6
g7
sg8
S'2015-07-20-16-55-43'
p4005
sg10
g11
sg12
S'26.8'
p4006
sa(dp4007
g2
g3
sg4
S'42.1'
p4008
sg6
g7
sg8
S'2015-07-20-16-56-44'
p4009
sg10
g1285
sg12
S'26.8'
p4010
sa(dp4011
g2
g3
sg4
S'42.7'
p4012
sg6
g7
sg8
S'2015-07-20-16-57-44'
p4013
sg10
g11
sg12
S'26.9'
p4014
sa(dp4015
g2
g3
sg4
S'42.9'
p4016
sg6
g7
sg8
S'2015-07-20-16-58-45'
p4017
sg10
g11
sg12
S'26.9'
p4018
sa(dp4019
g2
g3
sg4
S'46.6'
p4020
sg6
g7
sg8
S'2015-07-20-16-59-50'
p4021
sg10
g11
sg12
S'27.1'
p4022
sa(dp4023
g2
g3
sg4
S'46.6'
p4024
sg6
g7
sg8
S'2015-07-20-17-00-51'
p4025
sg10
g11
sg12
S'27.1'
p4026
sa(dp4027
g2
g3
sg4
S'46.1'
p4028
sg6
g7
sg8
S'2015-07-20-17-01-51'
p4029
sg10
g11
sg12
S'27.1'
p4030
sa(dp4031
g2
g3
sg4
S'46.0'
p4032
sg6
g7
sg8
S'2015-07-20-17-02-52'
p4033
sg10
g11
sg12
S'27.2'
p4034
sa(dp4035
g2
g3
sg4
S'45.8'
p4036
sg6
g7
sg8
S'2015-07-20-17-03-53'
p4037
sg10
g11
sg12
S'27.2'
p4038
sa(dp4039
g2
g3
sg4
S'45.9'
p4040
sg6
g7
sg8
S'2015-07-20-17-04-53'
p4041
sg10
g11
sg12
S'27.2'
p4042
sa(dp4043
g2
g3
sg4
S'45.8'
p4044
sg6
g7
sg8
S'2015-07-20-17-05-54'
p4045
sg10
g11
sg12
S'27.2'
p4046
sa(dp4047
g2
g3
sg4
S'45.8'
p4048
sg6
g7
sg8
S'2015-07-20-17-06-54'
p4049
sg10
g11
sg12
S'27.3'
p4050
sa(dp4051
g2
g3
sg4
S'46.6'
p4052
sg6
g7
sg8
S'2015-07-20-17-07-55'
p4053
sg10
g11
sg12
S'27.3'
p4054
sa(dp4055
g2
g3
sg4
S'47.1'
p4056
sg6
g7
sg8
S'2015-07-20-17-08-55'
p4057
sg10
g11
sg12
S'27.3'
p4058
sa(dp4059
g2
g3
sg4
S'47.7'
p4060
sg6
g7
sg8
S'2015-07-20-17-09-56'
p4061
sg10
g11
sg12
S'27.3'
p4062
sa(dp4063
g2
g3
sg4
S'47.3'
p4064
sg6
g7
sg8
S'2015-07-20-17-10-57'
p4065
sg10
g11
sg12
S'27.3'
p4066
sa(dp4067
g2
g3
sg4
S'47.1'
p4068
sg6
g7
sg8
S'2015-07-20-17-11-57'
p4069
sg10
g11
sg12
S'27.4'
p4070
sa(dp4071
g2
g3
sg4
S'47.1'
p4072
sg6
g7
sg8
S'2015-07-20-17-12-58'
p4073
sg10
g11
sg12
S'27.4'
p4074
sa(dp4075
g2
g3
sg4
S'47.8'
p4076
sg6
g7
sg8
S'2015-07-20-17-13-58'
p4077
sg10
g11
sg12
S'27.4'
p4078
sa(dp4079
g2
g3
sg4
S'48.7'
p4080
sg6
g7
sg8
S'2015-07-20-17-14-59'
p4081
sg10
g11
sg12
S'27.4'
p4082
sa(dp4083
g2
g3
sg4
S'49.3'
p4084
sg6
g7
sg8
S'2015-07-20-17-15-59'
p4085
sg10
g11
sg12
S'27.4'
p4086
sa(dp4087
g2
g3
sg4
S'49.0'
p4088
sg6
g7
sg8
S'2015-07-20-17-17-00'
p4089
sg10
g11
sg12
S'27.3'
p4090
sa(dp4091
g2
g3
sg4
S'48.7'
p4092
sg6
g7
sg8
S'2015-07-20-17-18-01'
p4093
sg10
g11
sg12
S'27.2'
p4094
sa(dp4095
g2
g3
sg4
S'48.4'
p4096
sg6
g7
sg8
S'2015-07-20-17-19-01'
p4097
sg10
g11
sg12
S'27.1'
p4098
sa(dp4099
g2
g3
sg4
S'48.1'
p4100
sg6
g7
sg8
S'2015-07-20-17-20-02'
p4101
sg10
g11
sg12
S'27.0'
p4102
sa(dp4103
g2
g3
sg4
S'47.3'
p4104
sg6
g7
sg8
S'2015-07-20-17-21-02'
p4105
sg10
g11
sg12
S'26.9'
p4106
sa(dp4107
g2
g3
sg4
S'47.1'
p4108
sg6
g7
sg8
S'2015-07-20-17-22-03'
p4109
sg10
g11
sg12
S'26.8'
p4110
sa(dp4111
g2
g3
sg4
S'46.7'
p4112
sg6
g7
sg8
S'2015-07-20-17-23-06'
p4113
sg10
g11
sg12
S'26.5'
p4114
sa(dp4115
g2
g3
sg4
S'46.7'
p4116
sg6
g7
sg8
S'2015-07-20-17-24-06'
p4117
sg10
g11
sg12
S'26.5'
p4118
sa(dp4119
g2
g3
sg4
S'46.6'
p4120
sg6
g7
sg8
S'2015-07-20-17-25-07'
p4121
sg10
g11
sg12
S'26.4'
p4122
sa(dp4123
g2
g3
sg4
S'46.4'
p4124
sg6
g7
sg8
S'2015-07-20-17-26-08'
p4125
sg10
g11
sg12
S'26.4'
p4126
sa(dp4127
g2
g3
sg4
S'46.3'
p4128
sg6
g7
sg8
S'2015-07-20-17-27-08'
p4129
sg10
g11
sg12
S'26.3'
p4130
sa(dp4131
g2
g3
sg4
S'46.1'
p4132
sg6
g7
sg8
S'2015-07-20-17-28-09'
p4133
sg10
g11
sg12
S'26.3'
p4134
sa(dp4135
g2
g3
sg4
S'45.8'
p4136
sg6
g7
sg8
S'2015-07-20-17-29-09'
p4137
sg10
g11
sg12
S'26.2'
p4138
sa(dp4139
g2
g3
sg4
S'45.8'
p4140
sg6
g7
sg8
S'2015-07-20-17-30-10'
p4141
sg10
g11
sg12
S'26.1'
p4142
sa(dp4143
g2
g3
sg4
S'45.6'
p4144
sg6
g7
sg8
S'2015-07-20-17-31-10'
p4145
sg10
g11
sg12
S'26.1'
p4146
sa(dp4147
g2
g3
sg4
S'45.5'
p4148
sg6
g7
sg8
S'2015-07-20-17-32-11'
p4149
sg10
g11
sg12
S'26.1'
p4150
sa(dp4151
g2
g3
sg4
S'45.3'
p4152
sg6
g7
sg8
S'2015-07-20-17-33-12'
p4153
sg10
g11
sg12
S'26.0'
p4154
sa(dp4155
g2
g3
sg4
S'44.6'
p4156
sg6
g7
sg8
S'2015-07-20-17-34-12'
p4157
sg10
g11
sg12
S'25.9'
p4158
sa(dp4159
g2
g3
sg4
S'44.6'
p4160
sg6
g7
sg8
S'2015-07-20-17-35-13'
p4161
sg10
g11
sg12
S'25.9'
p4162
sa(dp4163
g2
g3
sg4
S'44.3'
p4164
sg6
g7
sg8
S'2015-07-20-17-36-16'
p4165
sg10
g11
sg12
S'25.9'
p4166
sa(dp4167
g2
g3
sg4
S'44.3'
p4168
sg6
g7
sg8
S'2015-07-20-17-37-16'
p4169
sg10
g11
sg12
S'25.8'
p4170
sa(dp4171
g2
g3
sg4
S'44.1'
p4172
sg6
g7
sg8
S'2015-07-20-17-38-17'
p4173
sg10
g11
sg12
S'25.8'
p4174
sa(dp4175
g2
g3
sg4
S'43.9'
p4176
sg6
g7
sg8
S'2015-07-20-17-39-17'
p4177
sg10
g11
sg12
S'25.8'
p4178
sa(dp4179
g2
g3
sg4
S'43.9'
p4180
sg6
g7
sg8
S'2015-07-20-17-40-18'
p4181
sg10
g11
sg12
S'25.7'
p4182
sa(dp4183
g2
g3
sg4
S'43.8'
p4184
sg6
g7
sg8
S'2015-07-20-17-41-19'
p4185
sg10
g11
sg12
S'25.7'
p4186
sa(dp4187
g2
g3
sg4
S'43.8'
p4188
sg6
g7
sg8
S'2015-07-20-17-42-19'
p4189
sg10
g11
sg12
S'25.6'
p4190
sa(dp4191
g2
g3
sg4
S'43.5'
p4192
sg6
g7
sg8
S'2015-07-20-17-43-20'
p4193
sg10
g11
sg12
S'25.6'
p4194
sa(dp4195
g2
g3
sg4
S'43.5'
p4196
sg6
g7
sg8
S'2015-07-20-17-44-20'
p4197
sg10
g11
sg12
S'25.6'
p4198
sa(dp4199
g2
g3
sg4
S'43.4'
p4200
sg6
g7
sg8
S'2015-07-20-17-45-21'
p4201
sg10
g11
sg12
S'25.6'
p4202
sa(dp4203
g2
g3
sg4
S'43.4'
p4204
sg6
g7
sg8
S'2015-07-20-17-46-21'
p4205
sg10
g11
sg12
S'25.6'
p4206
sa(dp4207
g2
g3
sg4
S'43.2'
p4208
sg6
g7
sg8
S'2015-07-20-17-47-22'
p4209
sg10
g11
sg12
S'25.5'
p4210
sa(dp4211
g2
g3
sg4
S'43.0'
p4212
sg6
g7
sg8
S'2015-07-20-17-48-23'
p4213
sg10
g11
sg12
S'25.5'
p4214
sa(dp4215
g2
g3
sg4
S'42.9'
p4216
sg6
g7
sg8
S'2015-07-20-17-49-23'
p4217
sg10
g11
sg12
S'25.5'
p4218
sa(dp4219
g2
g3
sg4
S'42.9'
p4220
sg6
g7
sg8
S'2015-07-20-17-50-24'
p4221
sg10
g11
sg12
S'25.5'
p4222
sa(dp4223
g2
g3
sg4
S'42.8'
p4224
sg6
g7
sg8
S'2015-07-20-17-51-24'
p4225
sg10
g11
sg12
S'25.5'
p4226
sa(dp4227
g2
g3
sg4
S'42.5'
p4228
sg6
g7
sg8
S'2015-07-20-17-52-25'
p4229
sg10
g11
sg12
S'25.5'
p4230
sa(dp4231
g2
g3
sg4
S'42.5'
p4232
sg6
g7
sg8
S'2015-07-20-17-53-25'
p4233
sg10
g11
sg12
S'25.4'
p4234
sa(dp4235
g2
g3
sg4
S'42.4'
p4236
sg6
g7
sg8
S'2015-07-20-17-54-31'
p4237
sg10
g11
sg12
S'25.4'
p4238
sa(dp4239
g2
g3
sg4
S'42.3'
p4240
sg6
g7
sg8
S'2015-07-20-17-55-32'
p4241
sg10
g11
sg12
S'25.4'
p4242
sa(dp4243
g2
g3
sg4
S'42.0'
p4244
sg6
g7
sg8
S'2015-07-20-17-56-32'
p4245
sg10
g11
sg12
S'25.4'
p4246
sa(dp4247
g2
g3
sg4
S'42.0'
p4248
sg6
g7
sg8
S'2015-07-20-17-57-33'
p4249
sg10
g11
sg12
S'25.3'
p4250
sa(dp4251
g2
g3
sg4
S'41.9'
p4252
sg6
g7
sg8
S'2015-07-20-17-58-33'
p4253
sg10
g11
sg12
S'25.3'
p4254
sa(dp4255
g2
g3
sg4
S'41.8'
p4256
sg6
g7
sg8
S'2015-07-20-17-59-34'
p4257
sg10
g11
sg12
S'25.3'
p4258
sa(dp4259
g2
g3
sg4
S'41.9'
p4260
sg6
g7
sg8
S'2015-07-20-18-00-34'
p4261
sg10
g11
sg12
S'25.3'
p4262
sa(dp4263
g2
g3
sg4
S'41.6'
p4264
sg6
g7
sg8
S'2015-07-20-18-01-38'
p4265
sg10
g11
sg12
S'25.3'
p4266
sa(dp4267
g2
g3
sg4
S'41.6'
p4268
sg6
g7
sg8
S'2015-07-20-18-02-38'
p4269
sg10
g11
sg12
S'25.2'
p4270
sa(dp4271
g2
g3
sg4
S'41.6'
p4272
sg6
g7
sg8
S'2015-07-20-18-03-39'
p4273
sg10
g11
sg12
S'25.2'
p4274
sa(dp4275
g2
g3
sg4
S'41.5'
p4276
sg6
g7
sg8
S'2015-07-20-18-04-39'
p4277
sg10
g11
sg12
S'25.2'
p4278
sa(dp4279
g2
g3
sg4
S'41.4'
p4280
sg6
g7
sg8
S'2015-07-20-18-05-40'
p4281
sg10
g11
sg12
S'25.2'
p4282
sa(dp4283
g2
g3
sg4
S'41.4'
p4284
sg6
g7
sg8
S'2015-07-20-18-06-40'
p4285
sg10
g11
sg12
S'25.2'
p4286
sa(dp4287
g2
g3
sg4
S'41.4'
p4288
sg6
g7
sg8
S'2015-07-20-18-07-41'
p4289
sg10
g11
sg12
S'25.2'
p4290
sa(dp4291
g2
g3
sg4
S'41.4'
p4292
sg6
g7
sg8
S'2015-07-20-18-08-42'
p4293
sg10
g11
sg12
S'25.2'
p4294
sa(dp4295
g2
g3
sg4
S'41.3'
p4296
sg6
g7
sg8
S'2015-07-20-18-09-42'
p4297
sg10
g11
sg12
S'25.2'
p4298
sa(dp4299
g2
g3
sg4
S'41.3'
p4300
sg6
g7
sg8
S'2015-07-20-18-10-43'
p4301
sg10
g11
sg12
S'25.2'
p4302
sa(dp4303
g2
g3
sg4
S'41.2'
p4304
sg6
g7
sg8
S'2015-07-20-18-11-43'
p4305
sg10
g11
sg12
S'25.2'
p4306
sa(dp4307
g2
g3
sg4
S'41.3'
p4308
sg6
g7
sg8
S'2015-07-20-18-12-44'
p4309
sg10
g11
sg12
S'25.2'
p4310
sa(dp4311
g2
g3
sg4
S'41.2'
p4312
sg6
g7
sg8
S'2015-07-20-18-13-44'
p4313
sg10
g11
sg12
S'25.2'
p4314
sa(dp4315
g2
g3
sg4
S'41.1'
p4316
sg6
g7
sg8
S'2015-07-20-18-14-45'
p4317
sg10
g11
sg12
S'25.1'
p4318
sa(dp4319
g2
g3
sg4
S'41.2'
p4320
sg6
g7
sg8
S'2015-07-20-18-15-46'
p4321
sg10
g11
sg12
S'25.1'
p4322
sa(dp4323
g2
g3
sg4
S'41.3'
p4324
sg6
g7
sg8
S'2015-07-20-18-16-46'
p4325
sg10
g11
sg12
S'25.1'
p4326
sa(dp4327
g2
g3
sg4
S'41.3'
p4328
sg6
g7
sg8
S'2015-07-20-18-17-47'
p4329
sg10
g11
sg12
S'25.2'
p4330
sa(dp4331
g2
g3
sg4
S'41.5'
p4332
sg6
g7
sg8
S'2015-07-20-18-18-47'
p4333
sg10
g11
sg12
S'25.2'
p4334
sa(dp4335
g2
g3
sg4
S'42.9'
p4336
sg6
g7
sg8
S'2015-07-20-18-19-48'
p4337
sg10
g11
sg12
S'25.3'
p4338
sa(dp4339
g2
g3
sg4
S'43.7'
p4340
sg6
g7
sg8
S'2015-07-20-18-20-48'
p4341
sg10
g11
sg12
S'25.4'
p4342
sa(dp4343
g2
g3
sg4
S'43.8'
p4344
sg6
g7
sg8
S'2015-07-20-18-21-49'
p4345
sg10
g11
sg12
S'25.5'
p4346
sa(dp4347
g2
g3
sg4
S'44.0'
p4348
sg6
g7
sg8
S'2015-07-20-18-22-50'
p4349
sg10
g11
sg12
S'25.6'
p4350
sa(dp4351
g2
g3
sg4
S'44.1'
p4352
sg6
g7
sg8
S'2015-07-20-18-23-50'
p4353
sg10
g11
sg12
S'25.7'
p4354
sa(dp4355
g2
g3
sg4
S'44.3'
p4356
sg6
g7
sg8
S'2015-07-20-18-24-51'
p4357
sg10
g11
sg12
S'25.7'
p4358
sa(dp4359
g2
g3
sg4
S'44.8'
p4360
sg6
g7
sg8
S'2015-07-20-18-25-56'
p4361
sg10
g11
sg12
S'25.8'
p4362
sa(dp4363
g2
g3
sg4
S'44.8'
p4364
sg6
g7
sg8
S'2015-07-20-18-26-57'
p4365
sg10
g11
sg12
S'25.8'
p4366
sa(dp4367
g2
g3
sg4
S'45.2'
p4368
sg6
g7
sg8
S'2015-07-20-18-27-57'
p4369
sg10
g11
sg12
S'25.9'
p4370
sa(dp4371
g2
g3
sg4
S'45.6'
p4372
sg6
g7
sg8
S'2015-07-20-18-28-58'
p4373
sg10
g11
sg12
S'25.9'
p4374
sa(dp4375
g2
g3
sg4
S'46.3'
p4376
sg6
g7
sg8
S'2015-07-20-18-29-59'
p4377
sg10
g11
sg12
S'26.0'
p4378
sa(dp4379
g2
g3
sg4
S'46.4'
p4380
sg6
g7
sg8
S'2015-07-20-18-30-59'
p4381
sg10
g11
sg12
S'26.1'
p4382
sa(dp4383
g2
g3
sg4
S'46.4'
p4384
sg6
g7
sg8
S'2015-07-20-18-32-00'
p4385
sg10
g11
sg12
S'26.1'
p4386
sa(dp4387
g2
g3
sg4
S'46.6'
p4388
sg6
g7
sg8
S'2015-07-20-18-33-00'
p4389
sg10
g1285
sg12
S'26.1'
p4390
sa(dp4391
g2
g3
sg4
S'46.9'
p4392
sg6
g7
sg8
S'2015-07-20-18-34-03'
p4393
sg10
g11
sg12
S'26.2'
p4394
sa(dp4395
g2
g3
sg4
S'47.2'
p4396
sg6
g7
sg8
S'2015-07-20-18-35-07'
p4397
sg10
g11
sg12
S'26.2'
p4398
sa(dp4399
g2
g3
sg4
S'47.2'
p4400
sg6
g7
sg8
S'2015-07-20-18-36-07'
p4401
sg10
g11
sg12
S'26.2'
p4402
sa(dp4403
g2
g3
sg4
S'47.4'
p4404
sg6
g7
sg8
S'2015-07-20-18-37-08'
p4405
sg10
g11
sg12
S'26.3'
p4406
sa(dp4407
g2
g3
sg4
S'47.7'
p4408
sg6
g7
sg8
S'2015-07-20-18-38-11'
p4409
sg10
g11
sg12
S'26.4'
p4410
sa(dp4411
g2
g3
sg4
S'47.7'
p4412
sg6
g7
sg8
S'2015-07-20-18-39-11'
p4413
sg10
g11
sg12
S'26.4'
p4414
sa(dp4415
g2
g3
sg4
S'48.2'
p4416
sg6
g7
sg8
S'2015-07-20-18-40-17'
p4417
sg10
g11
sg12
S'26.4'
p4418
sa(dp4419
g2
g3
sg4
S'48.2'
p4420
sg6
g7
sg8
S'2015-07-20-18-41-18'
p4421
sg10
g11
sg12
S'26.4'
p4422
sa(dp4423
g2
g3
sg4
S'48.6'
p4424
sg6
g7
sg8
S'2015-07-20-18-42-18'
p4425
sg10
g11
sg12
S'26.4'
p4426
sa(dp4427
g2
g3
sg4
S'48.7'
p4428
sg6
g7
sg8
S'2015-07-20-18-43-19'
p4429
sg10
g11
sg12
S'26.5'
p4430
sa(dp4431
g2
g3
sg4
S'48.8'
p4432
sg6
g7
sg8
S'2015-07-20-18-44-19'
p4433
sg10
g11
sg12
S'26.5'
p4434
sa(dp4435
g2
g3
sg4
S'49.1'
p4436
sg6
g7
sg8
S'2015-07-20-18-45-25'
p4437
sg10
g11
sg12
S'26.6'
p4438
sa(dp4439
g2
g3
sg4
S'49.1'
p4440
sg6
g7
sg8
S'2015-07-20-18-46-25'
p4441
sg10
g11
sg12
S'26.6'
p4442
sa(dp4443
g2
g3
sg4
S'49.0'
p4444
sg6
g7
sg8
S'2015-07-20-18-47-26'
p4445
sg10
g11
sg12
S'26.6'
p4446
sa(dp4447
g2
g3
sg4
S'48.8'
p4448
sg6
g7
sg8
S'2015-07-20-18-48-27'
p4449
sg10
g11
sg12
S'26.5'
p4450
sa(dp4451
g2
g3
sg4
S'48.5'
p4452
sg6
g7
sg8
S'2015-07-20-18-49-27'
p4453
sg10
g11
sg12
S'26.5'
p4454
sa(dp4455
g2
g3
sg4
S'48.3'
p4456
sg6
g7
sg8
S'2015-07-20-18-50-28'
p4457
sg10
g11
sg12
S'26.4'
p4458
sa(dp4459
g2
g3
sg4
S'48.2'
p4460
sg6
g7
sg8
S'2015-07-20-18-51-28'
p4461
sg10
g11
sg12
S'26.3'
p4462
sa(dp4463
g2
g3
sg4
S'48.0'
p4464
sg6
g7
sg8
S'2015-07-20-18-52-29'
p4465
sg10
g11
sg12
S'26.2'
p4466
sa(dp4467
g2
g3
sg4
S'48.0'
p4468
sg6
g7
sg8
S'2015-07-20-18-53-29'
p4469
sg10
g11
sg12
S'26.2'
p4470
sa(dp4471
g2
g3
sg4
S'47.9'
p4472
sg6
g7
sg8
S'2015-07-20-18-54-30'
p4473
sg10
g11
sg12
S'26.1'
p4474
sa(dp4475
g2
g3
sg4
S'47.7'
p4476
sg6
g7
sg8
S'2015-07-20-18-55-30'
p4477
sg10
g11
sg12
S'26.0'
p4478
sa(dp4479
g2
g3
sg4
S'47.7'
p4480
sg6
g7
sg8
S'2015-07-20-18-56-31'
p4481
sg10
g11
sg12
S'26.0'
p4482
sa(dp4483
g2
g3
sg4
S'47.4'
p4484
sg6
g7
sg8
S'2015-07-20-18-57-32'
p4485
sg10
g11
sg12
S'26.0'
p4486
sa(dp4487
g2
g3
sg4
S'46.7'
p4488
sg6
g7
sg8
S'2015-07-20-18-58-32'
p4489
sg10
g11
sg12
S'25.9'
p4490
sa(dp4491
g2
g3
sg4
S'46.5'
p4492
sg6
g7
sg8
S'2015-07-20-18-59-33'
p4493
sg10
g11
sg12
S'25.9'
p4494
sa(dp4495
g2
g3
sg4
S'46.3'
p4496
sg6
g7
sg8
S'2015-07-20-19-00-41'
p4497
sg10
g11
sg12
S'25.8'
p4498
sa(dp4499
g2
g3
sg4
S'46.2'
p4500
sg6
g7
sg8
S'2015-07-20-19-01-41'
p4501
sg10
g11
sg12
S'25.8'
p4502
sa(dp4503
g2
g3
sg4
S'46.1'
p4504
sg6
g7
sg8
S'2015-07-20-19-02-42'
p4505
sg10
g11
sg12
S'25.8'
p4506
sa(dp4507
g2
g3
sg4
S'46.0'
p4508
sg6
g7
sg8
S'2015-07-20-19-03-43'
p4509
sg10
g11
sg12
S'25.8'
p4510
sa(dp4511
g2
g3
sg4
S'45.9'
p4512
sg6
g7
sg8
S'2015-07-20-19-04-43'
p4513
sg10
g11
sg12
S'25.7'
p4514
sa(dp4515
g2
g3
sg4
S'45.7'
p4516
sg6
g7
sg8
S'2015-07-20-19-05-44'
p4517
sg10
g11
sg12
S'25.7'
p4518
sa(dp4519
g2
g3
sg4
S'45.7'
p4520
sg6
g7
sg8
S'2015-07-20-19-06-44'
p4521
sg10
g11
sg12
S'25.7'
p4522
sa(dp4523
g2
g3
sg4
S'45.5'
p4524
sg6
g7
sg8
S'2015-07-20-19-07-45'
p4525
sg10
g11
sg12
S'25.6'
p4526
sa(dp4527
g2
g3
sg4
S'45.3'
p4528
sg6
g7
sg8
S'2015-07-20-19-08-45'
p4529
sg10
g11
sg12
S'25.6'
p4530
sa(dp4531
g2
g3
sg4
S'45.2'
p4532
sg6
g7
sg8
S'2015-07-20-19-09-46'
p4533
sg10
g11
sg12
S'25.6'
p4534
sa(dp4535
g2
g3
sg4
S'45.1'
p4536
sg6
g7
sg8
S'2015-07-20-19-10-47'
p4537
sg10
g11
sg12
S'25.6'
p4538
sa(dp4539
g2
g3
sg4
S'44.8'
p4540
sg6
g7
sg8
S'2015-07-20-19-11-50'
p4541
sg10
g11
sg12
S'25.5'
p4542
sa(dp4543
g2
g3
sg4
S'44.8'
p4544
sg6
g7
sg8
S'2015-07-20-19-12-50'
p4545
sg10
g11
sg12
S'25.5'
p4546
sa(dp4547
g2
g3
sg4
S'44.6'
p4548
sg6
g7
sg8
S'2015-07-20-19-13-51'
p4549
sg10
g11
sg12
S'25.5'
p4550
sa(dp4551
g2
g3
sg4
S'44.4'
p4552
sg6
g7
sg8
S'2015-07-20-19-14-56'
p4553
sg10
g11
sg12
S'25.5'
p4554
sa(dp4555
g2
g3
sg4
S'44.4'
p4556
sg6
g7
sg8
S'2015-07-20-19-15-57'
p4557
sg10
g11
sg12
S'25.5'
p4558
sa(dp4559
g2
g3
sg4
S'44.3'
p4560
sg6
g7
sg8
S'2015-07-20-19-16-58'
p4561
sg10
g11
sg12
S'25.5'
p4562
sa(dp4563
g2
g3
sg4
S'44.2'
p4564
sg6
g7
sg8
S'2015-07-20-19-17-58'
p4565
sg10
g11
sg12
S'25.5'
p4566
sa(dp4567
g2
g3
sg4
S'44.0'
p4568
sg6
g7
sg8
S'2015-07-20-19-18-59'
p4569
sg10
g11
sg12
S'25.5'
p4570
sa(dp4571
g2
g3
sg4
S'43.9'
p4572
sg6
g7
sg8
S'2015-07-20-19-19-59'
p4573
sg10
g11
sg12
S'25.4'
p4574
sa(dp4575
g2
g3
sg4
S'43.8'
p4576
sg6
g7
sg8
S'2015-07-20-19-21-00'
p4577
sg10
g11
sg12
S'25.4'
p4578
sa(dp4579
g2
g3
sg4
S'43.7'
p4580
sg6
g7
sg8
S'2015-07-20-19-22-00'
p4581
sg10
g11
sg12
S'25.4'
p4582
sa(dp4583
g2
g3
sg4
S'43.6'
p4584
sg6
g7
sg8
S'2015-07-20-19-23-01'
p4585
sg10
g11
sg12
S'25.4'
p4586
sa(dp4587
g2
g3
sg4
S'43.5'
p4588
sg6
g7
sg8
S'2015-07-20-19-24-02'
p4589
sg10
g11
sg12
S'25.4'
p4590
sa(dp4591
g2
g3
sg4
S'43.4'
p4592
sg6
g7
sg8
S'2015-07-20-19-25-02'
p4593
sg10
g11
sg12
S'25.4'
p4594
sa(dp4595
g2
g3
sg4
S'43.3'
p4596
sg6
g7
sg8
S'2015-07-20-19-26-03'
p4597
sg10
g11
sg12
S'25.4'
p4598
sa(dp4599
g2
g3
sg4
S'43.2'
p4600
sg6
g7
sg8
S'2015-07-20-19-27-03'
p4601
sg10
g11
sg12
S'25.3'
p4602
sa(dp4603
g2
g3
sg4
S'43.1'
p4604
sg6
g7
sg8
S'2015-07-20-19-28-04'
p4605
sg10
g11
sg12
S'25.3'
p4606
sa(dp4607
g2
g3
sg4
S'43.0'
p4608
sg6
g7
sg8
S'2015-07-20-19-29-04'
p4609
sg10
g11
sg12
S'25.3'
p4610
sa(dp4611
g2
g3
sg4
S'42.9'
p4612
sg6
g7
sg8
S'2015-07-20-19-30-05'
p4613
sg10
g11
sg12
S'25.3'
p4614
sa(dp4615
g2
g3
sg4
S'42.8'
p4616
sg6
g7
sg8
S'2015-07-20-19-31-06'
p4617
sg10
g11
sg12
S'25.3'
p4618
sa(dp4619
g2
g3
sg4
S'43.3'
p4620
sg6
g7
sg8
S'2015-07-20-19-32-06'
p4621
sg10
g11
sg12
S'25.3'
p4622
sa(dp4623
g2
g3
sg4
S'43.9'
p4624
sg6
g7
sg8
S'2015-07-20-19-33-07'
p4625
sg10
g11
sg12
S'25.4'
p4626
sa(dp4627
g2
g3
sg4
S'44.4'
p4628
sg6
g7
sg8
S'2015-07-20-19-34-07'
p4629
sg10
g11
sg12
S'25.5'
p4630
sa(dp4631
g2
g3
sg4
S'44.8'
p4632
sg6
g7
sg8
S'2015-07-20-19-35-08'
p4633
sg10
g11
sg12
S'25.6'
p4634
sa(dp4635
g2
g3
sg4
S'45.1'
p4636
sg6
g7
sg8
S'2015-07-20-19-36-08'
p4637
sg10
g11
sg12
S'25.6'
p4638
sa(dp4639
g2
g3
sg4
S'45.3'
p4640
sg6
g7
sg8
S'2015-07-20-19-37-09'
p4641
sg10
g11
sg12
S'25.7'
p4642
sa(dp4643
g2
g3
sg4
S'45.6'
p4644
sg6
g7
sg8
S'2015-07-20-19-38-10'
p4645
sg10
g11
sg12
S'25.8'
p4646
sa(dp4647
g2
g3
sg4
S'45.9'
p4648
sg6
g7
sg8
S'2015-07-20-19-39-10'
p4649
sg10
g11
sg12
S'25.8'
p4650
sa(dp4651
g2
g3
sg4
S'46.3'
p4652
sg6
g7
sg8
S'2015-07-20-19-40-11'
p4653
sg10
g11
sg12
S'25.9'
p4654
sa(dp4655
g2
g3
sg4
S'46.5'
p4656
sg6
g7
sg8
S'2015-07-20-19-41-11'
p4657
sg10
g11
sg12
S'25.9'
p4658
sa(dp4659
g2
g3
sg4
S'47.4'
p4660
sg6
g7
sg8
S'2015-07-20-19-42-12'
p4661
sg10
g11
sg12
S'26.0'
p4662
sa(dp4663
g2
g3
sg4
S'47.6'
p4664
sg6
g7
sg8
S'2015-07-20-19-43-12'
p4665
sg10
g11
sg12
S'26.1'
p4666
sa(dp4667
g2
g3
sg4
S'47.8'
p4668
sg6
g7
sg8
S'2015-07-20-19-44-13'
p4669
sg10
g11
sg12
S'26.1'
p4670
sa(dp4671
g2
g3
sg4
S'48.0'
p4672
sg6
g7
sg8
S'2015-07-20-19-45-14'
p4673
sg10
g11
sg12
S'26.1'
p4674
sa(dp4675
g2
g3
sg4
S'48.5'
p4676
sg6
g7
sg8
S'2015-07-20-19-46-14'
p4677
sg10
g11
sg12
S'26.2'
p4678
sa(dp4679
g2
g3
sg4
S'48.6'
p4680
sg6
g7
sg8
S'2015-07-20-19-47-15'
p4681
sg10
g11
sg12
S'26.2'
p4682
sa(dp4683
g2
g3
sg4
S'48.9'
p4684
sg6
g7
sg8
S'2015-07-20-19-48-15'
p4685
sg10
g11
sg12
S'26.3'
p4686
sa(dp4687
g2
g3
sg4
S'49.2'
p4688
sg6
g7
sg8
S'2015-07-20-19-49-16'
p4689
sg10
g11
sg12
S'26.3'
p4690
sa(dp4691
g2
g3
sg4
S'49.5'
p4692
sg6
g7
sg8
S'2015-07-20-19-50-17'
p4693
sg10
g11
sg12
S'26.3'
p4694
sa(dp4695
g2
g3
sg4
S'49.8'
p4696
sg6
g7
sg8
S'2015-07-20-19-51-17'
p4697
sg10
g11
sg12
S'26.4'
p4698
sa(dp4699
g2
g3
sg4
S'50.0'
p4700
sg6
g7
sg8
S'2015-07-20-19-52-18'
p4701
sg10
g11
sg12
S'26.4'
p4702
sa(dp4703
g2
g3
sg4
S'50.5'
p4704
sg6
g7
sg8
S'2015-07-20-19-53-18'
p4705
sg10
g11
sg12
S'26.5'
p4706
sa(dp4707
g2
g3
sg4
S'50.4'
p4708
sg6
g7
sg8
S'2015-07-20-19-54-19'
p4709
sg10
g11
sg12
S'26.5'
p4710
sa(dp4711
g2
g3
sg4
S'50.7'
p4712
sg6
g7
sg8
S'2015-07-20-19-55-19'
p4713
sg10
g11
sg12
S'26.5'
p4714
sa(dp4715
g2
g3
sg4
S'50.9'
p4716
sg6
g7
sg8
S'2015-07-20-19-56-20'
p4717
sg10
g11
sg12
S'26.6'
p4718
sa(dp4719
g2
g3
sg4
S'51.1'
p4720
sg6
g7
sg8
S'2015-07-20-19-57-20'
p4721
sg10
g11
sg12
S'26.7'
p4722
sa(dp4723
g2
g3
sg4
S'51.3'
p4724
sg6
g7
sg8
S'2015-07-20-19-58-21'
p4725
sg10
g11
sg12
S'26.7'
p4726
sa(dp4727
g2
g3
sg4
S'51.3'
p4728
sg6
g7
sg8
S'2015-07-20-19-59-22'
p4729
sg10
g11
sg12
S'26.8'
p4730
sa(dp4731
g2
g3
sg4
S'51.4'
p4732
sg6
g7
sg8
S'2015-07-20-20-00-22'
p4733
sg10
g11
sg12
S'26.8'
p4734
sa(dp4735
g2
g3
sg4
S'51.2'
p4736
sg6
g7
sg8
S'2015-07-20-20-01-23'
p4737
sg10
g11
sg12
S'26.9'
p4738
sa(dp4739
g2
g3
sg4
S'51.3'
p4740
sg6
g7
sg8
S'2015-07-20-20-02-23'
p4741
sg10
g11
sg12
S'26.9'
p4742
sa(dp4743
g2
g3
sg4
S'51.3'
p4744
sg6
g7
sg8
S'2015-07-20-20-03-24'
p4745
sg10
g11
sg12
S'26.9'
p4746
sa(dp4747
g2
g3
sg4
S'51.3'
p4748
sg6
g7
sg8
S'2015-07-20-20-04-24'
p4749
sg10
g11
sg12
S'26.9'
p4750
sa(dp4751
g2
g3
sg4
S'51.1'
p4752
sg6
g7
sg8
S'2015-07-20-20-05-25'
p4753
sg10
g11
sg12
S'26.9'
p4754
sa(dp4755
g2
g3
sg4
S'50.8'
p4756
sg6
g7
sg8
S'2015-07-20-20-06-26'
p4757
sg10
g11
sg12
S'26.9'
p4758
sa(dp4759
g2
g3
sg4
S'50.5'
p4760
sg6
g7
sg8
S'2015-07-20-20-07-26'
p4761
sg10
g11
sg12
S'26.9'
p4762
sa(dp4763
g2
g3
sg4
S'50.2'
p4764
sg6
g7
sg8
S'2015-07-20-20-08-27'
p4765
sg10
g11
sg12
S'26.8'
p4766
sa(dp4767
g2
g3
sg4
S'50.0'
p4768
sg6
g7
sg8
S'2015-07-20-20-09-27'
p4769
sg10
g11
sg12
S'26.7'
p4770
sa(dp4771
g2
g3
sg4
S'49.8'
p4772
sg6
g7
sg8
S'2015-07-20-20-10-28'
p4773
sg10
g11
sg12
S'26.6'
p4774
sa(dp4775
g2
g3
sg4
S'49.5'
p4776
sg6
g7
sg8
S'2015-07-20-20-11-28'
p4777
sg10
g11
sg12
S'26.5'
p4778
sa(dp4779
g2
g3
sg4
S'49.4'
p4780
sg6
g7
sg8
S'2015-07-20-20-12-32'
p4781
sg10
g11
sg12
S'26.4'
p4782
sa(dp4783
g2
g3
sg4
S'49.3'
p4784
sg6
g7
sg8
S'2015-07-20-20-13-35'
p4785
sg10
g11
sg12
S'26.4'
p4786
sa(dp4787
g2
g3
sg4
S'49.4'
p4788
sg6
g7
sg8
S'2015-07-20-20-14-35'
p4789
sg10
g11
sg12
S'26.4'
p4790
sa(dp4791
g2
g3
sg4
S'49.3'
p4792
sg6
g7
sg8
S'2015-07-20-20-15-36'
p4793
sg10
g11
sg12
S'26.4'
p4794
sa(dp4795
g2
g3
sg4
S'49.2'
p4796
sg6
g7
sg8
S'2015-07-20-20-16-36'
p4797
sg10
g11
sg12
S'26.4'
p4798
sa(dp4799
g2
g3
sg4
S'49.2'
p4800
sg6
g7
sg8
S'2015-07-20-20-17-37'
p4801
sg10
g11
sg12
S'26.4'
p4802
sa(dp4803
g2
g3
sg4
S'49.2'
p4804
sg6
g7
sg8
S'2015-07-20-20-18-37'
p4805
sg10
g11
sg12
S'26.5'
p4806
sa(dp4807
g2
g3
sg4
S'49.2'
p4808
sg6
g7
sg8
S'2015-07-20-20-19-38'
p4809
sg10
g11
sg12
S'26.5'
p4810
sa(dp4811
g2
g3
sg4
S'49.2'
p4812
sg6
g7
sg8
S'2015-07-20-20-20-39'
p4813
sg10
g11
sg12
S'26.5'
p4814
sa(dp4815
g2
g3
sg4
S'49.2'
p4816
sg6
g7
sg8
S'2015-07-20-20-21-39'
p4817
sg10
g11
sg12
S'26.5'
p4818
sa(dp4819
g2
g3
sg4
S'49.2'
p4820
sg6
g7
sg8
S'2015-07-20-20-22-40'
p4821
sg10
g11
sg12
S'26.6'
p4822
sa(dp4823
g2
g3
sg4
S'49.2'
p4824
sg6
g7
sg8
S'2015-07-20-20-23-40'
p4825
sg10
g11
sg12
S'26.6'
p4826
sa(dp4827
g2
g3
sg4
S'49.2'
p4828
sg6
g7
sg8
S'2015-07-20-20-24-41'
p4829
sg10
g11
sg12
S'26.6'
p4830
sa(dp4831
g2
g3
sg4
S'49.2'
p4832
sg6
g7
sg8
S'2015-07-20-20-25-41'
p4833
sg10
g11
sg12
S'26.6'
p4834
sa(dp4835
g2
g3
sg4
S'49.1'
p4836
sg6
g7
sg8
S'2015-07-20-20-26-42'
p4837
sg10
g11
sg12
S'26.6'
p4838
sa(dp4839
g2
g3
sg4
S'49.2'
p4840
sg6
g7
sg8
S'2015-07-20-20-27-43'
p4841
sg10
g11
sg12
S'26.7'
p4842
sa(dp4843
g2
g3
sg4
S'49.2'
p4844
sg6
g7
sg8
S'2015-07-20-20-28-43'
p4845
sg10
g11
sg12
S'26.7'
p4846
sa(dp4847
g2
g3
sg4
S'49.2'
p4848
sg6
g7
sg8
S'2015-07-20-20-29-44'
p4849
sg10
g11
sg12
S'26.8'
p4850
sa(dp4851
g2
g3
sg4
S'49.2'
p4852
sg6
g7
sg8
S'2015-07-20-20-30-44'
p4853
sg10
g11
sg12
S'26.8'
p4854
sa(dp4855
g2
g3
sg4
S'49.2'
p4856
sg6
g7
sg8
S'2015-07-20-20-31-45'
p4857
sg10
g11
sg12
S'26.8'
p4858
sa(dp4859
g2
g3
sg4
S'49.2'
p4860
sg6
g7
sg8
S'2015-07-20-20-32-45'
p4861
sg10
g11
sg12
S'26.8'
p4862
sa(dp4863
g2
g3
sg4
S'49.2'
p4864
sg6
g7
sg8
S'2015-07-20-20-33-46'
p4865
sg10
g11
sg12
S'26.8'
p4866
sa(dp4867
g2
g3
sg4
S'49.2'
p4868
sg6
g7
sg8
S'2015-07-20-20-34-47'
p4869
sg10
g11
sg12
S'26.8'
p4870
sa(dp4871
g2
g3
sg4
S'49.2'
p4872
sg6
g7
sg8
S'2015-07-20-20-35-47'
p4873
sg10
g11
sg12
S'26.8'
p4874
sa(dp4875
g2
g3
sg4
S'49.3'
p4876
sg6
g7
sg8
S'2015-07-20-20-36-48'
p4877
sg10
g11
sg12
S'26.9'
p4878
sa(dp4879
g2
g3
sg4
S'49.3'
p4880
sg6
g7
sg8
S'2015-07-20-20-37-48'
p4881
sg10
g11
sg12
S'26.9'
p4882
sa(dp4883
g2
g3
sg4
S'49.3'
p4884
sg6
g7
sg8
S'2015-07-20-20-38-49'
p4885
sg10
g11
sg12
S'26.8'
p4886
sa(dp4887
g2
g3
sg4
S'49.4'
p4888
sg6
g7
sg8
S'2015-07-20-20-39-49'
p4889
sg10
g11
sg12
S'26.9'
p4890
sa(dp4891
g2
g3
sg4
S'49.4'
p4892
sg6
g7
sg8
S'2015-07-20-20-40-50'
p4893
sg10
g11
sg12
S'26.9'
p4894
sa(dp4895
g2
g3
sg4
S'49.3'
p4896
sg6
g7
sg8
S'2015-07-20-20-41-51'
p4897
sg10
g11
sg12
S'26.9'
p4898
sa(dp4899
g2
g3
sg4
S'49.5'
p4900
sg6
g7
sg8
S'2015-07-20-20-42-51'
p4901
sg10
g11
sg12
S'26.9'
p4902
sa(dp4903
g2
g3
sg4
S'49.5'
p4904
sg6
g7
sg8
S'2015-07-20-20-43-52'
p4905
sg10
g11
sg12
S'26.9'
p4906
sa(dp4907
g2
g3
sg4
S'49.5'
p4908
sg6
g7
sg8
S'2015-07-20-20-44-52'
p4909
sg10
g11
sg12
S'26.9'
p4910
sa(dp4911
g2
g3
sg4
S'49.4'
p4912
sg6
g7
sg8
S'2015-07-20-20-45-53'
p4913
sg10
g11
sg12
S'26.9'
p4914
sa(dp4915
g2
g3
sg4
S'50.0'
p4916
sg6
g7
sg8
S'2015-07-20-20-46-53'
p4917
sg10
g11
sg12
S'27.0'
p4918
sa(dp4919
g2
g3
sg4
S'50.0'
p4920
sg6
g7
sg8
S'2015-07-20-20-47-54'
p4921
sg10
g11
sg12
S'27.0'
p4922
sa(dp4923
g2
g3
sg4
S'49.5'
p4924
sg6
g7
sg8
S'2015-07-20-20-48-55'
p4925
sg10
g11
sg12
S'26.9'
p4926
sa(dp4927
g2
g3
sg4
S'50.1'
p4928
sg6
g7
sg8
S'2015-07-20-20-49-55'
p4929
sg10
g11
sg12
S'27.0'
p4930
sa(dp4931
g2
g3
sg4
S'50.1'
p4932
sg6
g7
sg8
S'2015-07-20-20-50-56'
p4933
sg10
g11
sg12
S'27.0'
p4934
sa(dp4935
g2
g3
sg4
S'50.1'
p4936
sg6
g7
sg8
S'2015-07-20-20-51-56'
p4937
sg10
g11
sg12
S'27.0'
p4938
sa(dp4939
g2
g3
sg4
S'50.2'
p4940
sg6
g7
sg8
S'2015-07-20-20-52-57'
p4941
sg10
g11
sg12
S'27.0'
p4942
sa(dp4943
g2
g3
sg4
S'50.4'
p4944
sg6
g7
sg8
S'2015-07-20-20-53-57'
p4945
sg10
g11
sg12
S'27.1'
p4946
sa(dp4947
g2
g3
sg4
S'50.3'
p4948
sg6
g7
sg8
S'2015-07-20-20-54-58'
p4949
sg10
g11
sg12
S'27.0'
p4950
sa(dp4951
g2
g3
sg4
S'50.3'
p4952
sg6
g7
sg8
S'2015-07-20-20-55-59'
p4953
sg10
g11
sg12
S'27.1'
p4954
sa(dp4955
g2
g3
sg4
S'50.3'
p4956
sg6
g7
sg8
S'2015-07-20-20-56-59'
p4957
sg10
g11
sg12
S'27.1'
p4958
sa(dp4959
g2
g3
sg4
S'50.6'
p4960
sg6
g7
sg8
S'2015-07-20-20-58-02'
p4961
sg10
g11
sg12
S'27.1'
p4962
sa(dp4963
g2
g3
sg4
S'50.6'
p4964
sg6
g7
sg8
S'2015-07-20-20-59-03'
p4965
sg10
g11
sg12
S'27.1'
p4966
sa(dp4967
g2
g3
sg4
S'50.6'
p4968
sg6
g7
sg8
S'2015-07-20-21-00-03'
p4969
sg10
g11
sg12
S'27.1'
p4970
sa(dp4971
g2
g3
sg4
S'50.8'
p4972
sg6
g7
sg8
S'2015-07-20-21-01-04'
p4973
sg10
g11
sg12
S'27.1'
p4974
sa(dp4975
g2
g3
sg4
S'50.7'
p4976
sg6
g7
sg8
S'2015-07-20-21-02-05'
p4977
sg10
g11
sg12
S'27.1'
p4978
sa(dp4979
g2
g3
sg4
S'50.7'
p4980
sg6
g7
sg8
S'2015-07-20-21-03-08'
p4981
sg10
g11
sg12
S'27.1'
p4982
sa(dp4983
g2
g3
sg4
S'50.7'
p4984
sg6
g7
sg8
S'2015-07-20-21-04-08'
p4985
sg10
g11
sg12
S'27.1'
p4986
sa(dp4987
g2
g3
sg4
S'50.7'
p4988
sg6
g7
sg8
S'2015-07-20-21-05-09'
p4989
sg10
g11
sg12
S'27.1'
p4990
sa(dp4991
g2
g3
sg4
S'50.7'
p4992
sg6
g7
sg8
S'2015-07-20-21-06-09'
p4993
sg10
g11
sg12
S'27.1'
p4994
sa(dp4995
g2
g3
sg4
S'50.7'
p4996
sg6
g7
sg8
S'2015-07-20-21-07-10'
p4997
sg10
g11
sg12
S'27.1'
p4998
sa(dp4999
g2
g3
sg4
S'50.6'
p5000
sg6
g7
sg8
S'2015-07-20-21-08-16'
p5001
sg10
g11
sg12
S'27.1'
p5002
sa(dp5003
g2
g3
sg4
S'50.6'
p5004
sg6
g7
sg8
S'2015-07-20-21-09-16'
p5005
sg10
g11
sg12
S'27.1'
p5006
sa(dp5007
g2
g3
sg4
S'50.6'
p5008
sg6
g7
sg8
S'2015-07-20-21-10-17'
p5009
sg10
g11
sg12
S'27.2'
p5010
sa(dp5011
g2
g3
sg4
S'50.6'
p5012
sg6
g7
sg8
S'2015-07-20-21-11-17'
p5013
sg10
g11
sg12
S'27.1'
p5014
sa(dp5015
g2
g3
sg4
S'50.6'
p5016
sg6
g7
sg8
S'2015-07-20-21-12-18'
p5017
sg10
g11
sg12
S'27.1'
p5018
sa(dp5019
g2
g3
sg4
S'50.6'
p5020
sg6
g7
sg8
S'2015-07-20-21-13-18'
p5021
sg10
g11
sg12
S'27.2'
p5022
sa(dp5023
g2
g3
sg4
S'50.5'
p5024
sg6
g7
sg8
S'2015-07-20-21-14-19'
p5025
sg10
g11
sg12
S'27.2'
p5026
sa(dp5027
g2
g3
sg4
S'50.6'
p5028
sg6
g7
sg8
S'2015-07-20-21-15-22'
p5029
sg10
g11
sg12
S'27.1'
p5030
sa(dp5031
g2
g3
sg4
S'50.6'
p5032
sg6
g7
sg8
S'2015-07-20-21-16-23'
p5033
sg10
g11
sg12
S'27.1'
p5034
sa(dp5035
g2
g3
sg4
S'50.5'
p5036
sg6
g7
sg8
S'2015-07-20-21-17-23'
p5037
sg10
g11
sg12
S'27.1'
p5038
sa(dp5039
g2
g3
sg4
S'50.6'
p5040
sg6
g7
sg8
S'2015-07-20-21-18-24'
p5041
sg10
g11
sg12
S'27.2'
p5042
sa(dp5043
g2
g3
sg4
S'50.6'
p5044
sg6
g7
sg8
S'2015-07-20-21-19-24'
p5045
sg10
g11
sg12
S'27.2'
p5046
sa(dp5047
g2
g3
sg4
S'50.7'
p5048
sg6
g7
sg8
S'2015-07-20-21-20-25'
p5049
sg10
g11
sg12
S'27.2'
p5050
sa(dp5051
g2
g3
sg4
S'50.7'
p5052
sg6
g7
sg8
S'2015-07-20-21-21-25'
p5053
sg10
g11
sg12
S'27.2'
p5054
sa(dp5055
g2
g3
sg4
S'50.6'
p5056
sg6
g7
sg8
S'2015-07-20-21-22-26'
p5057
sg10
g11
sg12
S'27.2'
p5058
sa(dp5059
g2
g3
sg4
S'50.8'
p5060
sg6
g7
sg8
S'2015-07-20-21-23-27'
p5061
sg10
g11
sg12
S'27.2'
p5062
sa(dp5063
g2
g3
sg4
S'51.4'
p5064
sg6
g7
sg8
S'2015-07-20-21-24-30'
p5065
sg10
g11
sg12
S'27.2'
p5066
sa(dp5067
g2
g3
sg4
S'51.4'
p5068
sg6
g7
sg8
S'2015-07-20-21-25-30'
p5069
sg10
g11
sg12
S'27.2'
p5070
sa(dp5071
g2
g3
sg4
S'51.5'
p5072
sg6
g7
sg8
S'2015-07-20-21-26-31'
p5073
sg10
g11
sg12
S'27.2'
p5074
sa(dp5075
g2
g3
sg4
S'51.6'
p5076
sg6
g7
sg8
S'2015-07-20-21-27-31'
p5077
sg10
g11
sg12
S'27.2'
p5078
sa(dp5079
g2
g3
sg4
S'51.6'
p5080
sg6
g7
sg8
S'2015-07-20-21-28-32'
p5081
sg10
g11
sg12
S'27.2'
p5082
sa(dp5083
g2
g3
sg4
S'51.8'
p5084
sg6
g7
sg8
S'2015-07-20-21-29-35'
p5085
sg10
g11
sg12
S'27.2'
p5086
sa(dp5087
g2
g3
sg4
S'51.8'
p5088
sg6
g7
sg8
S'2015-07-20-21-30-36'
p5089
sg10
g11
sg12
S'27.2'
p5090
sa(dp5091
g2
g3
sg4
S'51.9'
p5092
sg6
g7
sg8
S'2015-07-20-21-31-36'
p5093
sg10
g11
sg12
S'27.2'
p5094
sa(dp5095
g2
g3
sg4
S'52.0'
p5096
sg6
g7
sg8
S'2015-07-20-21-32-37'
p5097
sg10
g11
sg12
S'27.2'
p5098
sa(dp5099
g2
g3
sg4
S'52.0'
p5100
sg6
g7
sg8
S'2015-07-20-21-33-37'
p5101
sg10
g11
sg12
S'27.2'
p5102
sa(dp5103
g2
g3
sg4
S'52.0'
p5104
sg6
g7
sg8
S'2015-07-20-21-34-38'
p5105
sg10
g11
sg12
S'27.2'
p5106
sa(dp5107
g2
g3
sg4
S'52.1'
p5108
sg6
g7
sg8
S'2015-07-20-21-35-39'
p5109
sg10
g11
sg12
S'27.2'
p5110
sa(dp5111
g2
g3
sg4
S'52.1'
p5112
sg6
g7
sg8
S'2015-07-20-21-36-39'
p5113
sg10
g11
sg12
S'27.2'
p5114
sa(dp5115
g2
g3
sg4
S'52.2'
p5116
sg6
g7
sg8
S'2015-07-20-21-37-40'
p5117
sg10
g11
sg12
S'27.2'
p5118
sa(dp5119
g2
g3
sg4
S'52.2'
p5120
sg6
g7
sg8
S'2015-07-20-21-38-40'
p5121
sg10
g11
sg12
S'27.2'
p5122
sa(dp5123
g2
g3
sg4
S'52.3'
p5124
sg6
g7
sg8
S'2015-07-20-21-39-41'
p5125
sg10
g11
sg12
S'27.2'
p5126
sa(dp5127
g2
g3
sg4
S'52.2'
p5128
sg6
g7
sg8
S'2015-07-20-21-40-41'
p5129
sg10
g11
sg12
S'27.3'
p5130
sa(dp5131
g2
g3
sg4
S'52.2'
p5132
sg6
g7
sg8
S'2015-07-20-21-41-42'
p5133
sg10
g11
sg12
S'27.2'
p5134
sa(dp5135
g2
g3
sg4
S'52.3'
p5136
sg6
g7
sg8
S'2015-07-20-21-42-42'
p5137
sg10
g11
sg12
S'27.3'
p5138
sa(dp5139
g2
g3
sg4
S'52.2'
p5140
sg6
g7
sg8
S'2015-07-20-21-43-43'
p5141
sg10
g11
sg12
S'27.2'
p5142
sa(dp5143
g2
g3
sg4
S'52.3'
p5144
sg6
g7
sg8
S'2015-07-20-21-44-44'
p5145
sg10
g11
sg12
S'27.3'
p5146
sa(dp5147
g2
g3
sg4
S'52.2'
p5148
sg6
g7
sg8
S'2015-07-20-21-45-44'
p5149
sg10
g11
sg12
S'27.3'
p5150
sa(dp5151
g2
g3
sg4
S'52.2'
p5152
sg6
g7
sg8
S'2015-07-20-21-46-45'
p5153
sg10
g11
sg12
S'27.3'
p5154
sa(dp5155
g2
g3
sg4
S'52.2'
p5156
sg6
g7
sg8
S'2015-07-20-21-47-45'
p5157
sg10
g11
sg12
S'27.3'
p5158
sa(dp5159
g2
g3
sg4
S'52.2'
p5160
sg6
g7
sg8
S'2015-07-20-21-48-46'
p5161
sg10
g11
sg12
S'27.3'
p5162
sa(dp5163
g2
g3
sg4
S'52.2'
p5164
sg6
g7
sg8
S'2015-07-20-21-49-47'
p5165
sg10
g11
sg12
S'27.3'
p5166
sa(dp5167
g2
g3
sg4
S'52.2'
p5168
sg6
g7
sg8
S'2015-07-20-21-50-47'
p5169
sg10
g11
sg12
S'27.3'
p5170
sa(dp5171
g2
g3
sg4
S'52.3'
p5172
sg6
g7
sg8
S'2015-07-20-21-51-50'
p5173
sg10
g11
sg12
S'27.3'
p5174
sa(dp5175
g2
g3
sg4
S'52.3'
p5176
sg6
g7
sg8
S'2015-07-20-21-52-51'
p5177
sg10
g11
sg12
S'27.2'
p5178
sa(dp5179
g2
g3
sg4
S'52.4'
p5180
sg6
g7
sg8
S'2015-07-20-21-53-54'
p5181
sg10
g11
sg12
S'27.3'
p5182
sa(dp5183
g2
g3
sg4
S'52.4'
p5184
sg6
g7
sg8
S'2015-07-20-21-54-54'
p5185
sg10
g11
sg12
S'27.3'
p5186
sa(dp5187
g2
g3
sg4
S'52.6'
p5188
sg6
g7
sg8
S'2015-07-20-21-55-55'
p5189
sg10
g11
sg12
S'27.3'
p5190
sa(dp5191
g2
g3
sg4
S'52.6'
p5192
sg6
g7
sg8
S'2015-07-20-21-56-55'
p5193
sg10
g11
sg12
S'27.3'
p5194
sa(dp5195
g2
g3
sg4
S'52.7'
p5196
sg6
g7
sg8
S'2015-07-20-21-57-56'
p5197
sg10
g11
sg12
S'27.3'
p5198
sa(dp5199
g2
g3
sg4
S'52.8'
p5200
sg6
g7
sg8
S'2015-07-20-21-58-57'
p5201
sg10
g11
sg12
S'27.3'
p5202
sa(dp5203
g2
g3
sg4
S'52.8'
p5204
sg6
g7
sg8
S'2015-07-20-21-59-57'
p5205
sg10
g11
sg12
S'27.3'
p5206
sa(dp5207
g2
g3
sg4
S'52.8'
p5208
sg6
g7
sg8
S'2015-07-20-22-00-58'
p5209
sg10
g11
sg12
S'27.3'
p5210
sa(dp5211
g2
g3
sg4
S'52.9'
p5212
sg6
g7
sg8
S'2015-07-20-22-01-58'
p5213
sg10
g11
sg12
S'27.3'
p5214
sa(dp5215
g2
g3
sg4
S'52.8'
p5216
sg6
g7
sg8
S'2015-07-20-22-02-59'
p5217
sg10
g11
sg12
S'27.3'
p5218
sa(dp5219
g2
g3
sg4
S'53.0'
p5220
sg6
g7
sg8
S'2015-07-20-22-04-07'
p5221
sg10
g11
sg12
S'27.3'
p5222
sa(dp5223
g2
g3
sg4
S'53.0'
p5224
sg6
g7
sg8
S'2015-07-20-22-05-08'
p5225
sg10
g11
sg12
S'27.3'
p5226
sa(dp5227
g2
g3
sg4
S'52.9'
p5228
sg6
g7
sg8
S'2015-07-20-22-06-08'
p5229
sg10
g11
sg12
S'27.3'
p5230
sa(dp5231
g2
g3
sg4
S'52.8'
p5232
sg6
g7
sg8
S'2015-07-20-22-07-09'
p5233
sg10
g11
sg12
S'27.3'
p5234
sa(dp5235
g2
g3
sg4
S'52.9'
p5236
sg6
g7
sg8
S'2015-07-20-22-08-09'
p5237
sg10
g11
sg12
S'27.3'
p5238
sa(dp5239
g2
g3
sg4
S'53.0'
p5240
sg6
g7
sg8
S'2015-07-20-22-09-10'
p5241
sg10
g11
sg12
S'27.3'
p5242
sa(dp5243
g2
g3
sg4
S'53.1'
p5244
sg6
g7
sg8
S'2015-07-20-22-10-13'
p5245
sg10
g11
sg12
S'27.3'
p5246
sa(dp5247
g2
g3
sg4
S'53.1'
p5248
sg6
g7
sg8
S'2015-07-20-22-11-14'
p5249
sg10
g11
sg12
S'27.3'
p5250
sa(dp5251
g2
g3
sg4
S'52.9'
p5252
sg6
g7
sg8
S'2015-07-20-22-12-14'
p5253
sg10
g11
sg12
S'27.3'
p5254
sa(dp5255
g2
g3
sg4
S'52.9'
p5256
sg6
g7
sg8
S'2015-07-20-22-13-15'
p5257
sg10
g11
sg12
S'27.3'
p5258
sa(dp5259
g2
g3
sg4
S'53.0'
p5260
sg6
g7
sg8
S'2015-07-20-22-14-15'
p5261
sg10
g11
sg12
S'27.3'
p5262
sa(dp5263
g2
g3
sg4
S'52.8'
p5264
sg6
g7
sg8
S'2015-07-20-22-15-16'
p5265
sg10
g11
sg12
S'27.3'
p5266
sa(dp5267
g2
g3
sg4
S'52.9'
p5268
sg6
g7
sg8
S'2015-07-20-22-16-16'
p5269
sg10
g11
sg12
S'27.3'
p5270
sa(dp5271
g2
g3
sg4
S'53.1'
p5272
sg6
g7
sg8
S'2015-07-20-22-17-19'
p5273
sg10
g11
sg12
S'27.3'
p5274
sa(dp5275
g2
g3
sg4
S'53.0'
p5276
sg6
g7
sg8
S'2015-07-20-22-18-20'
p5277
sg10
g11
sg12
S'27.3'
p5278
sa(dp5279
g2
g3
sg4
S'53.1'
p5280
sg6
g7
sg8
S'2015-07-20-22-19-21'
p5281
sg10
g11
sg12
S'27.3'
p5282
sa(dp5283
g2
g3
sg4
S'53.1'
p5284
sg6
g7
sg8
S'2015-07-20-22-20-21'
p5285
sg10
g11
sg12
S'27.3'
p5286
sa(dp5287
g2
g3
sg4
S'53.1'
p5288
sg6
g7
sg8
S'2015-07-20-22-21-24'
p5289
sg10
g11
sg12
S'27.3'
p5290
sa(dp5291
g2
g3
sg4
S'53.1'
p5292
sg6
g7
sg8
S'2015-07-20-22-22-25'
p5293
sg10
g11
sg12
S'27.3'
p5294
sa(dp5295
g2
g3
sg4
S'53.2'
p5296
sg6
g7
sg8
S'2015-07-20-22-23-25'
p5297
sg10
g11
sg12
S'27.3'
p5298
sa(dp5299
g2
g3
sg4
S'53.1'
p5300
sg6
g7
sg8
S'2015-07-20-22-24-26'
p5301
sg10
g11
sg12
S'27.3'
p5302
sa(dp5303
g2
g3
sg4
S'53.1'
p5304
sg6
g7
sg8
S'2015-07-20-22-25-27'
p5305
sg10
g11
sg12
S'27.3'
p5306
sa(dp5307
g2
g3
sg4
S'53.1'
p5308
sg6
g7
sg8
S'2015-07-20-22-26-27'
p5309
sg10
g11
sg12
S'27.3'
p5310
sa(dp5311
g2
g3
sg4
S'53.1'
p5312
sg6
g7
sg8
S'2015-07-20-22-27-28'
p5313
sg10
g11
sg12
S'27.3'
p5314
sa(dp5315
g2
g3
sg4
S'53.0'
p5316
sg6
g7
sg8
S'2015-07-20-22-28-28'
p5317
sg10
g11
sg12
S'27.4'
p5318
sa(dp5319
g2
g3
sg4
S'53.1'
p5320
sg6
g7
sg8
S'2015-07-20-22-29-29'
p5321
sg10
g11
sg12
S'27.3'
p5322
sa(dp5323
g2
g3
sg4
S'53.1'
p5324
sg6
g7
sg8
S'2015-07-20-22-30-29'
p5325
sg10
g11
sg12
S'27.4'
p5326
sa(dp5327
g2
g3
sg4
S'53.1'
p5328
sg6
g7
sg8
S'2015-07-20-22-31-33'
p5329
sg10
g11
sg12
S'27.4'
p5330
sa(dp5331
g2
g3
sg4
S'53.1'
p5332
sg6
g7
sg8
S'2015-07-20-22-32-33'
p5333
sg10
g11
sg12
S'27.4'
p5334
sa(dp5335
g2
g3
sg4
S'53.1'
p5336
sg6
g7
sg8
S'2015-07-20-22-33-34'
p5337
sg10
g11
sg12
S'27.4'
p5338
sa(dp5339
g2
g3
sg4
S'53.0'
p5340
sg6
g7
sg8
S'2015-07-20-22-34-34'
p5341
sg10
g11
sg12
S'27.4'
p5342
sa(dp5343
g2
g3
sg4
S'53.1'
p5344
sg6
g7
sg8
S'2015-07-20-22-35-35'
p5345
sg10
g11
sg12
S'27.4'
p5346
sa(dp5347
g2
g3
sg4
S'53.1'
p5348
sg6
g7
sg8
S'2015-07-20-22-36-35'
p5349
sg10
g11
sg12
S'27.4'
p5350
sa(dp5351
g2
g3
sg4
S'53.1'
p5352
sg6
g7
sg8
S'2015-07-20-22-37-39'
p5353
sg10
g11
sg12
S'27.5'
p5354
sa(dp5355
g2
g3
sg4
S'53.1'
p5356
sg6
g7
sg8
S'2015-07-20-22-38-39'
p5357
sg10
g11
sg12
S'27.4'
p5358
sa(dp5359
g2
g3
sg4
S'53.0'
p5360
sg6
g7
sg8
S'2015-07-20-22-39-40'
p5361
sg10
g11
sg12
S'27.5'
p5362
sa(dp5363
g2
g3
sg4
S'52.9'
p5364
sg6
g7
sg8
S'2015-07-20-22-40-40'
p5365
sg10
g11
sg12
S'27.5'
p5366
sa(dp5367
g2
g3
sg4
S'52.8'
p5368
sg6
g7
sg8
S'2015-07-20-22-41-41'
p5369
sg10
g11
sg12
S'27.5'
p5370
sa(dp5371
g2
g3
sg4
S'53.0'
p5372
sg6
g7
sg8
S'2015-07-20-22-42-41'
p5373
sg10
g11
sg12
S'27.5'
p5374
sa(dp5375
g2
g3
sg4
S'53.1'
p5376
sg6
g7
sg8
S'2015-07-20-22-43-42'
p5377
sg10
g11
sg12
S'27.5'
p5378
sa(dp5379
g2
g3
sg4
S'53.1'
p5380
sg6
g7
sg8
S'2015-07-20-22-44-43'
p5381
sg10
g11
sg12
S'27.6'
p5382
sa(dp5383
g2
g3
sg4
S'53.0'
p5384
sg6
g7
sg8
S'2015-07-20-22-45-43'
p5385
sg10
g11
sg12
S'27.6'
p5386
sa(dp5387
g2
g3
sg4
S'52.9'
p5388
sg6
g7
sg8
S'2015-07-20-22-46-44'
p5389
sg10
g11
sg12
S'27.5'
p5390
sa(dp5391
g2
g3
sg4
S'52.9'
p5392
sg6
g7
sg8
S'2015-07-20-22-47-44'
p5393
sg10
g11
sg12
S'27.6'
p5394
sa(dp5395
g2
g3
sg4
S'52.9'
p5396
sg6
g7
sg8
S'2015-07-20-22-48-45'
p5397
sg10
g11
sg12
S'27.6'
p5398
sa(dp5399
g2
g3
sg4
S'52.9'
p5400
sg6
g7
sg8
S'2015-07-20-22-49-45'
p5401
sg10
g11
sg12
S'27.6'
p5402
sa(dp5403
g2
g3
sg4
S'52.8'
p5404
sg6
g7
sg8
S'2015-07-20-22-50-46'
p5405
sg10
g11
sg12
S'27.6'
p5406
sa(dp5407
g2
g3
sg4
S'52.8'
p5408
sg6
g7
sg8
S'2015-07-20-22-51-46'
p5409
sg10
g11
sg12
S'27.6'
p5410
sa(dp5411
g2
g3
sg4
S'52.8'
p5412
sg6
g7
sg8
S'2015-07-20-22-52-47'
p5413
sg10
g11
sg12
S'27.6'
p5414
sa(dp5415
g2
g3
sg4
S'52.9'
p5416
sg6
g7
sg8
S'2015-07-20-22-53-48'
p5417
sg10
g11
sg12
S'27.6'
p5418
sa(dp5419
g2
g3
sg4
S'53.1'
p5420
sg6
g7
sg8
S'2015-07-20-22-54-48'
p5421
sg10
g11
sg12
S'27.6'
p5422
sa(dp5423
g2
g3
sg4
S'53.6'
p5424
sg6
g7
sg8
S'2015-07-20-22-55-49'
p5425
sg10
g11
sg12
S'27.6'
p5426
sa(dp5427
g2
g3
sg4
S'53.9'
p5428
sg6
g7
sg8
S'2015-07-20-22-56-49'
p5429
sg10
g11
sg12
S'27.7'
p5430
sa(dp5431
g2
g3
sg4
S'53.8'
p5432
sg6
g7
sg8
S'2015-07-20-22-57-50'
p5433
sg10
g11
sg12
S'27.7'
p5434
sa(dp5435
g2
g3
sg4
S'53.6'
p5436
sg6
g7
sg8
S'2015-07-20-22-58-50'
p5437
sg10
g11
sg12
S'27.6'
p5438
sa(dp5439
g2
g3
sg4
S'53.5'
p5440
sg6
g7
sg8
S'2015-07-20-22-59-51'
p5441
sg10
g11
sg12
S'27.5'
p5442
sa(dp5443
g2
g3
sg4
S'53.0'
p5444
sg6
g7
sg8
S'2015-07-20-23-00-54'
p5445
sg10
g11
sg12
S'27.3'
p5446
sa(dp5447
g2
g3
sg4
S'53.0'
p5448
sg6
g7
sg8
S'2015-07-20-23-01-55'
p5449
sg10
g11
sg12
S'27.3'
p5450
sa(dp5451
g2
g3
sg4
S'52.8'
p5452
sg6
g7
sg8
S'2015-07-20-23-02-55'
p5453
sg10
g11
sg12
S'27.2'
p5454
sa(dp5455
g2
g3
sg4
S'52.8'
p5456
sg6
g7
sg8
S'2015-07-20-23-03-56'
p5457
sg10
g11
sg12
S'27.1'
p5458
sa(dp5459
g2
g3
sg4
S'52.6'
p5460
sg6
g7
sg8
S'2015-07-20-23-04-56'
p5461
sg10
g11
sg12
S'27.0'
p5462
sa(dp5463
g2
g3
sg4
S'51.8'
p5464
sg6
g7
sg8
S'2015-07-20-23-05-57'
p5465
sg10
g11
sg12
S'26.9'
p5466
sa(dp5467
g2
g3
sg4
S'51.6'
p5468
sg6
g7
sg8
S'2015-07-20-23-06-58'
p5469
sg10
g11
sg12
S'26.8'
p5470
sa(dp5471
g2
g3
sg4
S'51.4'
p5472
sg6
g7
sg8
S'2015-07-20-23-07-58'
p5473
sg10
g11
sg12
S'26.8'
p5474
sa(dp5475
g2
g3
sg4
S'51.3'
p5476
sg6
g7
sg8
S'2015-07-20-23-08-59'
p5477
sg10
g11
sg12
S'26.7'
p5478
sa(dp5479
g2
g3
sg4
S'51.0'
p5480
sg6
g7
sg8
S'2015-07-20-23-09-59'
p5481
sg10
g11
sg12
S'26.6'
p5482
sa(dp5483
g2
g3
sg4
S'50.7'
p5484
sg6
g7
sg8
S'2015-07-20-23-11-00'
p5485
sg10
g11
sg12
S'26.5'
p5486
sa(dp5487
g2
g3
sg4
S'50.7'
p5488
sg6
g7
sg8
S'2015-07-20-23-12-00'
p5489
sg10
g11
sg12
S'26.4'
p5490
sa(dp5491
g2
g3
sg4
S'50.6'
p5492
sg6
g7
sg8
S'2015-07-20-23-13-01'
p5493
sg10
g11
sg12
S'26.4'
p5494
sa(dp5495
g2
g3
sg4
S'50.5'
p5496
sg6
g7
sg8
S'2015-07-20-23-14-02'
p5497
sg10
g11
sg12
S'26.3'
p5498
sa(dp5499
g2
g3
sg4
S'50.4'
p5500
sg6
g7
sg8
S'2015-07-20-23-15-02'
p5501
sg10
g11
sg12
S'26.3'
p5502
sa(dp5503
g2
g3
sg4
S'50.2'
p5504
sg6
g7
sg8
S'2015-07-20-23-16-03'
p5505
sg10
g11
sg12
S'26.3'
p5506
sa(dp5507
g2
g3
sg4
S'49.9'
p5508
sg6
g7
sg8
S'2015-07-20-23-17-03'
p5509
sg10
g11
sg12
S'26.3'
p5510
sa(dp5511
g2
g3
sg4
S'49.8'
p5512
sg6
g7
sg8
S'2015-07-20-23-18-04'
p5513
sg10
g11
sg12
S'26.3'
p5514
sa(dp5515
g2
g3
sg4
S'49.5'
p5516
sg6
g7
sg8
S'2015-07-20-23-19-04'
p5517
sg10
g11
sg12
S'26.2'
p5518
sa(dp5519
g2
g3
sg4
S'49.4'
p5520
sg6
g7
sg8
S'2015-07-20-23-20-05'
p5521
sg10
g11
sg12
S'26.2'
p5522
sa(dp5523
g2
g3
sg4
S'49.2'
p5524
sg6
g7
sg8
S'2015-07-20-23-21-06'
p5525
sg10
g11
sg12
S'26.2'
p5526
sa(dp5527
g2
g3
sg4
S'49.1'
p5528
sg6
g7
sg8
S'2015-07-20-23-22-06'
p5529
sg10
g11
sg12
S'26.2'
p5530
sa(dp5531
g2
g3
sg4
S'48.8'
p5532
sg6
g7
sg8
S'2015-07-20-23-23-09'
p5533
sg10
g11
sg12
S'26.1'
p5534
sa(dp5535
g2
g3
sg4
S'48.6'
p5536
sg6
g7
sg8
S'2015-07-20-23-24-15'
p5537
sg10
g11
sg12
S'26.1'
p5538
sa(dp5539
g2
g3
sg4
S'48.6'
p5540
sg6
g7
sg8
S'2015-07-20-23-25-15'
p5541
sg10
g11
sg12
S'26.1'
p5542
sa(dp5543
g2
g3
sg4
S'48.4'
p5544
sg6
g7
sg8
S'2015-07-20-23-26-16'
p5545
sg10
g11
sg12
S'26.1'
p5546
sa(dp5547
g2
g3
sg4
S'48.3'
p5548
sg6
g7
sg8
S'2015-07-20-23-27-16'
p5549
sg10
g11
sg12
S'26.0'
p5550
sa(dp5551
g2
g3
sg4
S'48.1'
p5552
sg6
g7
sg8
S'2015-07-20-23-28-17'
p5553
sg10
g11
sg12
S'26.0'
p5554
sa(dp5555
g2
g3
sg4
S'47.3'
p5556
sg6
g7
sg8
S'2015-07-20-23-29-20'
p5557
sg10
g11
sg12
S'25.9'
p5558
sa(dp5559
g2
g3
sg4
S'47.3'
p5560
sg6
g7
sg8
S'2015-07-20-23-30-21'
p5561
sg10
g11
sg12
S'25.9'
p5562
sa(dp5563
g2
g3
sg4
S'47.3'
p5564
sg6
g7
sg8
S'2015-07-20-23-31-21'
p5565
sg10
g11
sg12
S'25.9'
p5566
sa(dp5567
g2
g3
sg4
S'47.2'
p5568
sg6
g7
sg8
S'2015-07-20-23-32-22'
p5569
sg10
g11
sg12
S'25.9'
p5570
sa(dp5571
g2
g3
sg4
S'46.8'
p5572
sg6
g7
sg8
S'2015-07-20-23-33-25'
p5573
sg10
g11
sg12
S'25.9'
p5574
sa(dp5575
g2
g3
sg4
S'46.8'
p5576
sg6
g7
sg8
S'2015-07-20-23-34-26'
p5577
sg10
g11
sg12
S'25.9'
p5578
sa(dp5579
g2
g3
sg4
S'46.7'
p5580
sg6
g7
sg8
S'2015-07-20-23-35-26'
p5581
sg10
g11
sg12
S'25.9'
p5582
sa(dp5583
g2
g3
sg4
S'46.6'
p5584
sg6
g7
sg8
S'2015-07-20-23-36-27'
p5585
sg10
g11
sg12
S'25.8'
p5586
sa(dp5587
g2
g3
sg4
S'46.6'
p5588
sg6
g7
sg8
S'2015-07-20-23-37-27'
p5589
sg10
g11
sg12
S'25.8'
p5590
sa(dp5591
g2
g3
sg4
S'46.5'
p5592
sg6
g7
sg8
S'2015-07-20-23-38-28'
p5593
sg10
g11
sg12
S'25.8'
p5594
sa(dp5595
g2
g3
sg4
S'46.4'
p5596
sg6
g7
sg8
S'2015-07-20-23-39-28'
p5597
sg10
g11
sg12
S'25.8'
p5598
sa(dp5599
g2
g3
sg4
S'46.3'
p5600
sg6
g7
sg8
S'2015-07-20-23-40-29'
p5601
sg10
g11
sg12
S'25.8'
p5602
sa(dp5603
g2
g3
sg4
S'46.3'
p5604
sg6
g7
sg8
S'2015-07-20-23-41-30'
p5605
sg10
g11
sg12
S'25.8'
p5606
sa(dp5607
g2
g3
sg4
S'46.2'
p5608
sg6
g7
sg8
S'2015-07-20-23-42-30'
p5609
sg10
g11
sg12
S'25.8'
p5610
sa(dp5611
g2
g3
sg4
S'46.1'
p5612
sg6
g7
sg8
S'2015-07-20-23-43-31'
p5613
sg10
g11
sg12
S'25.8'
p5614
sa(dp5615
g2
g3
sg4
S'46.0'
p5616
sg6
g7
sg8
S'2015-07-20-23-44-31'
p5617
sg10
g11
sg12
S'25.8'
p5618
sa(dp5619
g2
g3
sg4
S'45.9'
p5620
sg6
g7
sg8
S'2015-07-20-23-45-32'
p5621
sg10
g11
sg12
S'25.8'
p5622
sa.